Archive member included because of file (symbol)

c:/program files/gnu tools arm embedded/4.8 2014q3/bin/../lib/gcc/arm-none-eabi/4.8.4/armv7-m\libgcc.a(_arm_addsubdf3.o)
                              ..\obj\AD974.o (__aeabi_dsub)
c:/program files/gnu tools arm embedded/4.8 2014q3/bin/../lib/gcc/arm-none-eabi/4.8.4/armv7-m\libgcc.a(_arm_muldivdf3.o)
                              ..\obj\AD974.o (__aeabi_ddiv)
c:/program files/gnu tools arm embedded/4.8 2014q3/bin/../lib/gcc/arm-none-eabi/4.8.4/armv7-m\libgcc.a(_arm_fixunsdfsi.o)
                              ..\obj\AD974.o (__aeabi_d2uiz)
c:/program files/gnu tools arm embedded/4.8 2014q3/bin/../lib/gcc/arm-none-eabi/4.8.4/../../../../arm-none-eabi/lib/armv7-m\libg.a(lib_a-malloc.o)
                              ..\obj\CMD.o (malloc)
c:/program files/gnu tools arm embedded/4.8 2014q3/bin/../lib/gcc/arm-none-eabi/4.8.4/../../../../arm-none-eabi/lib/armv7-m\libg.a(lib_a-mallocr.o)
                              c:/program files/gnu tools arm embedded/4.8 2014q3/bin/../lib/gcc/arm-none-eabi/4.8.4/../../../../arm-none-eabi/lib/armv7-m\libg.a(lib_a-malloc.o) (_malloc_r)
c:/program files/gnu tools arm embedded/4.8 2014q3/bin/../lib/gcc/arm-none-eabi/4.8.4/../../../../arm-none-eabi/lib/armv7-m\libg.a(lib_a-memset.o)
                              ..\obj\CMD.o (memset)
c:/program files/gnu tools arm embedded/4.8 2014q3/bin/../lib/gcc/arm-none-eabi/4.8.4/../../../../arm-none-eabi/lib/armv7-m\libg.a(lib_a-mlock.o)
                              c:/program files/gnu tools arm embedded/4.8 2014q3/bin/../lib/gcc/arm-none-eabi/4.8.4/../../../../arm-none-eabi/lib/armv7-m\libg.a(lib_a-mallocr.o) (__malloc_lock)
c:/program files/gnu tools arm embedded/4.8 2014q3/bin/../lib/gcc/arm-none-eabi/4.8.4/../../../../arm-none-eabi/lib/armv7-m\libg.a(lib_a-sbrkr.o)
                              c:/program files/gnu tools arm embedded/4.8 2014q3/bin/../lib/gcc/arm-none-eabi/4.8.4/../../../../arm-none-eabi/lib/armv7-m\libg.a(lib_a-mallocr.o) (_sbrk_r)
c:/program files/gnu tools arm embedded/4.8 2014q3/bin/../lib/gcc/arm-none-eabi/4.8.4/../../../../arm-none-eabi/lib/armv7-m\libg.a(lib_a-freer.o)
                              c:/program files/gnu tools arm embedded/4.8 2014q3/bin/../lib/gcc/arm-none-eabi/4.8.4/../../../../arm-none-eabi/lib/armv7-m\libg.a(lib_a-malloc.o) (_free_r)
c:/program files/gnu tools arm embedded/4.8 2014q3/bin/../lib/gcc/arm-none-eabi/4.8.4/../../../../arm-none-eabi/lib/armv7-m\libg.a(lib_a-reent.o)
                              c:/program files/gnu tools arm embedded/4.8 2014q3/bin/../lib/gcc/arm-none-eabi/4.8.4/../../../../arm-none-eabi/lib/armv7-m\libg.a(lib_a-sbrkr.o) (errno)

Allocating common symbols
Common symbol       size              file

outputstateM        0xa               ..\obj\KGOUT.o
WinBreakFlag        0x1               ..\obj\detect.o
errno               0x4               c:/program files/gnu tools arm embedded/4.8 2014q3/bin/../lib/gcc/arm-none-eabi/4.8.4/../../../../arm-none-eabi/lib/armv7-m\libg.a(lib_a-reent.o)
CAT9555Mirror1      0x2               ..\obj\CAT9555.o
WinTOVERFlag        0x1               ..\obj\detect.o
Uart2FrameData      0x85              ..\obj\usart.o
inputstate          0x2a              ..\obj\detect.o
WinOpenFlag         0x1               ..\obj\detect.o
XCSFrameData        0x14              ..\obj\CMD.o
CAT9555Mirror0      0x2               ..\obj\CAT9555.o
outputstate         0x2d              ..\obj\KGOUT.o
Dula_Wela_I2c_Outputstate
                    0x2               ..\obj\KGOUT.o

Discarded input sections

 .text          0x00000000        0x0 ..\obj\stm32f10x_rtc.o
 .data          0x00000000        0x0 ..\obj\stm32f10x_rtc.o
 .bss           0x00000000        0x0 ..\obj\stm32f10x_rtc.o
 .text.RTC_ITConfig
                0x00000000       0x48 ..\obj\stm32f10x_rtc.o
 .text.RTC_EnterConfigMode
                0x00000000       0x20 ..\obj\stm32f10x_rtc.o
 .text.RTC_ExitConfigMode
                0x00000000       0x20 ..\obj\stm32f10x_rtc.o
 .text.RTC_GetCounter
                0x00000000       0x2c ..\obj\stm32f10x_rtc.o
 .text.RTC_SetCounter
                0x00000000       0x2c ..\obj\stm32f10x_rtc.o
 .text.RTC_SetPrescaler
                0x00000000       0x30 ..\obj\stm32f10x_rtc.o
 .text.RTC_SetAlarm
                0x00000000       0x2c ..\obj\stm32f10x_rtc.o
 .text.RTC_GetDivider
                0x00000000       0x38 ..\obj\stm32f10x_rtc.o
 .text.RTC_WaitForLastTask
                0x00000000       0x20 ..\obj\stm32f10x_rtc.o
 .text.RTC_WaitForSynchro
                0x00000000       0x30 ..\obj\stm32f10x_rtc.o
 .text.RTC_GetFlagStatus
                0x00000000       0x3c ..\obj\stm32f10x_rtc.o
 .text.RTC_ClearFlag
                0x00000000       0x2c ..\obj\stm32f10x_rtc.o
 .text.RTC_GetITStatus
                0x00000000       0x50 ..\obj\stm32f10x_rtc.o
 .text.RTC_ClearITPendingBit
                0x00000000       0x2c ..\obj\stm32f10x_rtc.o
 .debug_info    0x00000000      0x434 ..\obj\stm32f10x_rtc.o
 .debug_abbrev  0x00000000      0x18d ..\obj\stm32f10x_rtc.o
 .debug_aranges
                0x00000000       0x88 ..\obj\stm32f10x_rtc.o
 .debug_ranges  0x00000000       0x78 ..\obj\stm32f10x_rtc.o
 .debug_line    0x00000000      0x2a0 ..\obj\stm32f10x_rtc.o
 .debug_str     0x00000000      0x3a0 ..\obj\stm32f10x_rtc.o
 .comment       0x00000000       0x71 ..\obj\stm32f10x_rtc.o
 .ARM.attributes
                0x00000000       0x33 ..\obj\stm32f10x_rtc.o
 .debug_frame   0x00000000      0x194 ..\obj\stm32f10x_rtc.o
 .text          0x00000000        0x0 ..\obj\delay.o
 .data          0x00000000        0x0 ..\obj\delay.o
 .text          0x00000000        0x0 ..\obj\stm32f10x_tim.o
 .data          0x00000000        0x0 ..\obj\stm32f10x_tim.o
 .bss           0x00000000        0x0 ..\obj\stm32f10x_tim.o
 .text.TIM_DeInit
                0x00000000      0x22c ..\obj\stm32f10x_tim.o
 .text.TIM_OC1Init
                0x00000000      0x118 ..\obj\stm32f10x_tim.o
 .text.TIM_OC2Init
                0x00000000      0x110 ..\obj\stm32f10x_tim.o
 .text.TIM_OC3Init
                0x00000000      0x10c ..\obj\stm32f10x_tim.o
 .text.TIM_OC4Init
                0x00000000       0xd0 ..\obj\stm32f10x_tim.o
 .text.TIM_ICInit
                0x00000000       0xa8 ..\obj\stm32f10x_tim.o
 .text.TIM_PWMIConfig
                0x00000000       0xb8 ..\obj\stm32f10x_tim.o
 .text.TIM_BDTRConfig
                0x00000000       0x50 ..\obj\stm32f10x_tim.o
 .text.TIM_TimeBaseStructInit
                0x00000000       0x34 ..\obj\stm32f10x_tim.o
 .text.TIM_OCStructInit
                0x00000000       0x44 ..\obj\stm32f10x_tim.o
 .text.TIM_ICStructInit
                0x00000000       0x30 ..\obj\stm32f10x_tim.o
 .text.TIM_BDTRStructInit
                0x00000000       0x3c ..\obj\stm32f10x_tim.o
 .text.TIM_CtrlPWMOutputs
                0x00000000       0x4c ..\obj\stm32f10x_tim.o
 .text.TIM_GenerateEvent
                0x00000000       0x1c ..\obj\stm32f10x_tim.o
 .text.TIM_DMAConfig
                0x00000000       0x28 ..\obj\stm32f10x_tim.o
 .text.TIM_DMACmd
                0x00000000       0x48 ..\obj\stm32f10x_tim.o
 .text.TIM_InternalClockConfig
                0x00000000       0x24 ..\obj\stm32f10x_tim.o
 .text.TIM_ITRxExternalClockConfig
                0x00000000       0x2c ..\obj\stm32f10x_tim.o
 .text.TIM_TIxExternalClockConfig
                0x00000000       0x54 ..\obj\stm32f10x_tim.o
 .text.TIM_ETRClockMode1Config
                0x00000000       0x50 ..\obj\stm32f10x_tim.o
 .text.TIM_ETRClockMode2Config
                0x00000000       0x30 ..\obj\stm32f10x_tim.o
 .text.TIM_ETRConfig
                0x00000000       0x48 ..\obj\stm32f10x_tim.o
 .text.TIM_PrescalerConfig
                0x00000000       0x28 ..\obj\stm32f10x_tim.o
 .text.TIM_CounterModeConfig
                0x00000000       0x38 ..\obj\stm32f10x_tim.o
 .text.TIM_SelectInputTrigger
                0x00000000       0x38 ..\obj\stm32f10x_tim.o
 .text.TIM_EncoderInterfaceConfig
                0x00000000       0x8c ..\obj\stm32f10x_tim.o
 .text.TIM_ForcedOC1Config
                0x00000000       0x38 ..\obj\stm32f10x_tim.o
 .text.TIM_ForcedOC2Config
                0x00000000       0x3c ..\obj\stm32f10x_tim.o
 .text.TIM_ForcedOC3Config
                0x00000000       0x38 ..\obj\stm32f10x_tim.o
 .text.TIM_ForcedOC4Config
                0x00000000       0x3c ..\obj\stm32f10x_tim.o
 .text.TIM_ARRPreloadConfig
                0x00000000       0x40 ..\obj\stm32f10x_tim.o
 .text.TIM_SelectCOM
                0x00000000       0x40 ..\obj\stm32f10x_tim.o
 .text.TIM_SelectCCDMA
                0x00000000       0x40 ..\obj\stm32f10x_tim.o
 .text.TIM_CCPreloadControl
                0x00000000       0x40 ..\obj\stm32f10x_tim.o
 .text.TIM_OC1PreloadConfig
                0x00000000       0x38 ..\obj\stm32f10x_tim.o
 .text.TIM_OC2PreloadConfig
                0x00000000       0x3c ..\obj\stm32f10x_tim.o
 .text.TIM_OC3PreloadConfig
                0x00000000       0x38 ..\obj\stm32f10x_tim.o
 .text.TIM_OC4PreloadConfig
                0x00000000       0x3c ..\obj\stm32f10x_tim.o
 .text.TIM_OC1FastConfig
                0x00000000       0x38 ..\obj\stm32f10x_tim.o
 .text.TIM_OC2FastConfig
                0x00000000       0x3c ..\obj\stm32f10x_tim.o
 .text.TIM_OC3FastConfig
                0x00000000       0x38 ..\obj\stm32f10x_tim.o
 .text.TIM_OC4FastConfig
                0x00000000       0x3c ..\obj\stm32f10x_tim.o
 .text.TIM_ClearOC1Ref
                0x00000000       0x38 ..\obj\stm32f10x_tim.o
 .text.TIM_ClearOC2Ref
                0x00000000       0x3c ..\obj\stm32f10x_tim.o
 .text.TIM_ClearOC3Ref
                0x00000000       0x38 ..\obj\stm32f10x_tim.o
 .text.TIM_ClearOC4Ref
                0x00000000       0x3c ..\obj\stm32f10x_tim.o
 .text.TIM_OC1PolarityConfig
                0x00000000       0x38 ..\obj\stm32f10x_tim.o
 .text.TIM_OC1NPolarityConfig
                0x00000000       0x38 ..\obj\stm32f10x_tim.o
 .text.TIM_OC2PolarityConfig
                0x00000000       0x3c ..\obj\stm32f10x_tim.o
 .text.TIM_OC2NPolarityConfig
                0x00000000       0x3c ..\obj\stm32f10x_tim.o
 .text.TIM_OC3PolarityConfig
                0x00000000       0x3c ..\obj\stm32f10x_tim.o
 .text.TIM_OC3NPolarityConfig
                0x00000000       0x3c ..\obj\stm32f10x_tim.o
 .text.TIM_OC4PolarityConfig
                0x00000000       0x3c ..\obj\stm32f10x_tim.o
 .text.TIM_CCxCmd
                0x00000000       0x54 ..\obj\stm32f10x_tim.o
 .text.TIM_CCxNCmd
                0x00000000       0x54 ..\obj\stm32f10x_tim.o
 .text.TIM_SelectOCxM
                0x00000000       0xa8 ..\obj\stm32f10x_tim.o
 .text.TIM_UpdateDisableConfig
                0x00000000       0x40 ..\obj\stm32f10x_tim.o
 .text.TIM_UpdateRequestConfig
                0x00000000       0x40 ..\obj\stm32f10x_tim.o
 .text.TIM_SelectHallSensor
                0x00000000       0x40 ..\obj\stm32f10x_tim.o
 .text.TIM_SelectOnePulseMode
                0x00000000       0x38 ..\obj\stm32f10x_tim.o
 .text.TIM_SelectOutputTrigger
                0x00000000       0x38 ..\obj\stm32f10x_tim.o
 .text.TIM_SelectSlaveMode
                0x00000000       0x38 ..\obj\stm32f10x_tim.o
 .text.TIM_SelectMasterSlaveMode
                0x00000000       0x38 ..\obj\stm32f10x_tim.o
 .text.TIM_SetCounter
                0x00000000       0x1c ..\obj\stm32f10x_tim.o
 .text.TIM_SetAutoreload
                0x00000000       0x1c ..\obj\stm32f10x_tim.o
 .text.TIM_SetCompare1
                0x00000000       0x1c ..\obj\stm32f10x_tim.o
 .text.TIM_SetCompare2
                0x00000000       0x1c ..\obj\stm32f10x_tim.o
 .text.TIM_SetCompare3
                0x00000000       0x1c ..\obj\stm32f10x_tim.o
 .text.TIM_SetCompare4
                0x00000000       0x20 ..\obj\stm32f10x_tim.o
 .text.TIM_SetIC1Prescaler
                0x00000000       0x38 ..\obj\stm32f10x_tim.o
 .text.TIM_SetIC2Prescaler
                0x00000000       0x3c ..\obj\stm32f10x_tim.o
 .text.TIM_SetIC3Prescaler
                0x00000000       0x38 ..\obj\stm32f10x_tim.o
 .text.TIM_SetIC4Prescaler
                0x00000000       0x3c ..\obj\stm32f10x_tim.o
 .text.TIM_SetClockDivision
                0x00000000       0x38 ..\obj\stm32f10x_tim.o
 .text.TIM_GetCapture1
                0x00000000       0x1c ..\obj\stm32f10x_tim.o
 .text.TIM_GetCapture2
                0x00000000       0x1c ..\obj\stm32f10x_tim.o
 .text.TIM_GetCapture3
                0x00000000       0x1c ..\obj\stm32f10x_tim.o
 .text.TIM_GetCapture4
                0x00000000       0x1c ..\obj\stm32f10x_tim.o
 .text.TIM_GetCounter
                0x00000000       0x1c ..\obj\stm32f10x_tim.o
 .text.TIM_GetPrescaler
                0x00000000       0x1c ..\obj\stm32f10x_tim.o
 .text.TIM_GetFlagStatus
                0x00000000       0x38 ..\obj\stm32f10x_tim.o
 .text.TIM_ClearFlag
                0x00000000       0x20 ..\obj\stm32f10x_tim.o
 .text.TI1_Config
                0x00000000       0xd4 ..\obj\stm32f10x_tim.o
 .text.TI2_Config
                0x00000000       0xe8 ..\obj\stm32f10x_tim.o
 .text.TI3_Config
                0x00000000       0xe0 ..\obj\stm32f10x_tim.o
 .text.TI4_Config
                0x00000000       0xec ..\obj\stm32f10x_tim.o
 .text          0x00000000        0x0 ..\obj\timer.o
 .data          0x00000000        0x0 ..\obj\timer.o
 .bss           0x00000000        0x0 ..\obj\timer.o
 .text          0x00000000        0x0 ..\obj\system_stm32f10x.o
 .bss           0x00000000        0x0 ..\obj\system_stm32f10x.o
 .text.SystemCoreClockUpdate
                0x00000000       0xd8 ..\obj\system_stm32f10x.o
 .text          0x00000000        0x0 ..\obj\led.o
 .data          0x00000000        0x0 ..\obj\led.o
 .bss           0x00000000        0x0 ..\obj\led.o
 .text          0x00000000        0x0 ..\obj\startup_stm32f10x_hd.o
 .data          0x00000000        0x0 ..\obj\startup_stm32f10x_hd.o
 .bss           0x00000000        0x0 ..\obj\startup_stm32f10x_hd.o
 .text          0x00000000        0x0 ..\obj\AD974.o
 .data          0x00000000        0x0 ..\obj\AD974.o
 .bss           0x00000000        0x0 ..\obj\AD974.o
 .text          0x00000000        0x0 ..\obj\stm32f10x_fsmc.o
 .data          0x00000000        0x0 ..\obj\stm32f10x_fsmc.o
 .bss           0x00000000        0x0 ..\obj\stm32f10x_fsmc.o
 .text.FSMC_NORSRAMDeInit
                0x00000000       0x58 ..\obj\stm32f10x_fsmc.o
 .text.FSMC_NANDDeInit
                0x00000000       0x5c ..\obj\stm32f10x_fsmc.o
 .text.FSMC_PCCARDDeInit
                0x00000000       0x34 ..\obj\stm32f10x_fsmc.o
 .text.FSMC_NORSRAMInit
                0x00000000      0x134 ..\obj\stm32f10x_fsmc.o
 .text.FSMC_NANDInit
                0x00000000       0xcc ..\obj\stm32f10x_fsmc.o
 .text.FSMC_PCCARDInit
                0x00000000       0xac ..\obj\stm32f10x_fsmc.o
 .text.FSMC_NORSRAMStructInit
                0x00000000       0xd4 ..\obj\stm32f10x_fsmc.o
 .text.FSMC_NANDStructInit
                0x00000000       0x7c ..\obj\stm32f10x_fsmc.o
 .text.FSMC_PCCARDStructInit
                0x00000000       0x84 ..\obj\stm32f10x_fsmc.o
 .text.FSMC_NORSRAMCmd
                0x00000000       0x54 ..\obj\stm32f10x_fsmc.o
 .text.FSMC_NANDCmd
                0x00000000       0x6c ..\obj\stm32f10x_fsmc.o
 .text.FSMC_PCCARDCmd
                0x00000000       0x3c ..\obj\stm32f10x_fsmc.o
 .text.FSMC_NANDECCCmd
                0x00000000       0x6c ..\obj\stm32f10x_fsmc.o
 .text.FSMC_GetECC
                0x00000000       0x38 ..\obj\stm32f10x_fsmc.o
 .text.FSMC_ITConfig
                0x00000000       0xa0 ..\obj\stm32f10x_fsmc.o
 .text.FSMC_GetFlagStatus
                0x00000000       0x64 ..\obj\stm32f10x_fsmc.o
 .text.FSMC_ClearFlag
                0x00000000       0x5c ..\obj\stm32f10x_fsmc.o
 .text.FSMC_GetITStatus
                0x00000000       0x80 ..\obj\stm32f10x_fsmc.o
 .text.FSMC_ClearITPendingBit
                0x00000000       0x64 ..\obj\stm32f10x_fsmc.o
 .debug_info    0x00000000      0x8f4 ..\obj\stm32f10x_fsmc.o
 .debug_abbrev  0x00000000      0x170 ..\obj\stm32f10x_fsmc.o
 .debug_aranges
                0x00000000       0xb0 ..\obj\stm32f10x_fsmc.o
 .debug_ranges  0x00000000       0xa0 ..\obj\stm32f10x_fsmc.o
 .debug_line    0x00000000      0x418 ..\obj\stm32f10x_fsmc.o
 .debug_str     0x00000000      0x778 ..\obj\stm32f10x_fsmc.o
 .comment       0x00000000       0x71 ..\obj\stm32f10x_fsmc.o
 .ARM.attributes
                0x00000000       0x33 ..\obj\stm32f10x_fsmc.o
 .debug_frame   0x00000000      0x220 ..\obj\stm32f10x_fsmc.o
 .text          0x00000000        0x0 ..\obj\stm32f10x_pwr.o
 .data          0x00000000        0x0 ..\obj\stm32f10x_pwr.o
 .bss           0x00000000        0x0 ..\obj\stm32f10x_pwr.o
 .text.PWR_DeInit
                0x00000000       0x1c ..\obj\stm32f10x_pwr.o
 .text.PWR_BackupAccessCmd
                0x00000000       0x20 ..\obj\stm32f10x_pwr.o
 .text.PWR_PVDCmd
                0x00000000       0x20 ..\obj\stm32f10x_pwr.o
 .text.PWR_PVDLevelConfig
                0x00000000       0x38 ..\obj\stm32f10x_pwr.o
 .text.PWR_WakeUpPinCmd
                0x00000000       0x20 ..\obj\stm32f10x_pwr.o
 .text.PWR_EnterSTOPMode
                0x00000000       0x64 ..\obj\stm32f10x_pwr.o
 .text.PWR_EnterSTANDBYMode
                0x00000000       0x3c ..\obj\stm32f10x_pwr.o
 .text.PWR_GetFlagStatus
                0x00000000       0x34 ..\obj\stm32f10x_pwr.o
 .text.PWR_ClearFlag
                0x00000000       0x24 ..\obj\stm32f10x_pwr.o
 .debug_info    0x00000000      0x482 ..\obj\stm32f10x_pwr.o
 .debug_abbrev  0x00000000      0x17f ..\obj\stm32f10x_pwr.o
 .debug_aranges
                0x00000000       0x60 ..\obj\stm32f10x_pwr.o
 .debug_ranges  0x00000000       0x50 ..\obj\stm32f10x_pwr.o
 .debug_line    0x00000000      0x252 ..\obj\stm32f10x_pwr.o
 .debug_str     0x00000000      0x320 ..\obj\stm32f10x_pwr.o
 .comment       0x00000000       0x71 ..\obj\stm32f10x_pwr.o
 .ARM.attributes
                0x00000000       0x33 ..\obj\stm32f10x_pwr.o
 .debug_frame   0x00000000      0x108 ..\obj\stm32f10x_pwr.o
 .text          0x00000000        0x0 ..\obj\CMD.o
 .data          0x00000000        0x0 ..\obj\CMD.o
 .bss           0x00000000        0x0 ..\obj\CMD.o
 .text          0x00000000        0x0 ..\obj\stm32f10x_gpio.o
 .data          0x00000000        0x0 ..\obj\stm32f10x_gpio.o
 .bss           0x00000000        0x0 ..\obj\stm32f10x_gpio.o
 .text.GPIO_DeInit
                0x00000000       0xe4 ..\obj\stm32f10x_gpio.o
 .text.GPIO_AFIODeInit
                0x00000000       0x18 ..\obj\stm32f10x_gpio.o
 .text.GPIO_StructInit
                0x00000000       0x28 ..\obj\stm32f10x_gpio.o
 .text.GPIO_ReadInputData
                0x00000000       0x1c ..\obj\stm32f10x_gpio.o
 .text.GPIO_ReadOutputDataBit
                0x00000000       0x34 ..\obj\stm32f10x_gpio.o
 .text.GPIO_ReadOutputData
                0x00000000       0x1c ..\obj\stm32f10x_gpio.o
 .text.GPIO_WriteBit
                0x00000000       0x30 ..\obj\stm32f10x_gpio.o
 .text.GPIO_Write
                0x00000000       0x1c ..\obj\stm32f10x_gpio.o
 .text.GPIO_PinLockConfig
                0x00000000       0x44 ..\obj\stm32f10x_gpio.o
 .text.GPIO_EventOutputConfig
                0x00000000       0x48 ..\obj\stm32f10x_gpio.o
 .text.GPIO_EventOutputCmd
                0x00000000       0x20 ..\obj\stm32f10x_gpio.o
 .text.GPIO_PinRemapConfig
                0x00000000       0xe0 ..\obj\stm32f10x_gpio.o
 .text.GPIO_ETH_MediaInterfaceConfig
                0x00000000       0x1c ..\obj\stm32f10x_gpio.o
 .text          0x00000000        0x0 ..\obj\sys.o
 .data          0x00000000        0x0 ..\obj\sys.o
 .bss           0x00000000        0x0 ..\obj\sys.o
 .text          0x00000000        0x0 ..\obj\main.o
 .data          0x00000000        0x0 ..\obj\main.o
 .bss           0x00000000        0x0 ..\obj\main.o
 .text          0x00000000        0x0 ..\obj\wdg.o
 .data          0x00000000        0x0 ..\obj\wdg.o
 .bss           0x00000000        0x0 ..\obj\wdg.o
 .text          0x00000000        0x0 ..\obj\printf.o
 .bss           0x00000000        0x0 ..\obj\printf.o
 .text.PrintChar
                0x00000000       0x14 ..\obj\printf.o
 .text.snprintf
                0x00000000       0x30 ..\obj\printf.o
 .text.vsprintf
                0x00000000       0x24 ..\obj\printf.o
 .rodata        0x00000000       0x24 ..\obj\printf.o
 .text.vfprintf
                0x00000000       0x68 ..\obj\printf.o
 .text.vprintf  0x00000000       0x28 ..\obj\printf.o
 .text.fprintf  0x00000000       0x2c ..\obj\printf.o
 .text.printf   0x00000000       0x28 ..\obj\printf.o
 .text.sprintf  0x00000000       0x2c ..\obj\printf.o
 .text.puts     0x00000000       0x24 ..\obj\printf.o
 .text.fputc    0x00000000       0x40 ..\obj\printf.o
 .text.fputs    0x00000000       0x48 ..\obj\printf.o
 .text          0x00000000        0x0 ..\obj\stm32f10x_rcc.o
 .bss           0x00000000        0x0 ..\obj\stm32f10x_rcc.o
 .text.RCC_DeInit
                0x00000000       0x5c ..\obj\stm32f10x_rcc.o
 .text.RCC_HSEConfig
                0x00000000       0x5c ..\obj\stm32f10x_rcc.o
 .text.RCC_WaitForHSEStartUp
                0x00000000       0x50 ..\obj\stm32f10x_rcc.o
 .text.RCC_AdjustHSICalibrationValue
                0x00000000       0x3c ..\obj\stm32f10x_rcc.o
 .text.RCC_HSICmd
                0x00000000       0x20 ..\obj\stm32f10x_rcc.o
 .text.RCC_PLLConfig
                0x00000000       0x3c ..\obj\stm32f10x_rcc.o
 .text.RCC_PLLCmd
                0x00000000       0x20 ..\obj\stm32f10x_rcc.o
 .text.RCC_SYSCLKConfig
                0x00000000       0x38 ..\obj\stm32f10x_rcc.o
 .text.RCC_GetSYSCLKSource
                0x00000000       0x20 ..\obj\stm32f10x_rcc.o
 .text.RCC_HCLKConfig
                0x00000000       0x38 ..\obj\stm32f10x_rcc.o
 .text.RCC_PCLK1Config
                0x00000000       0x38 ..\obj\stm32f10x_rcc.o
 .text.RCC_PCLK2Config
                0x00000000       0x38 ..\obj\stm32f10x_rcc.o
 .text.RCC_ITConfig
                0x00000000       0x48 ..\obj\stm32f10x_rcc.o
 .text.RCC_USBCLKConfig
                0x00000000       0x1c ..\obj\stm32f10x_rcc.o
 .text.RCC_ADCCLKConfig
                0x00000000       0x38 ..\obj\stm32f10x_rcc.o
 .text.RCC_LSEConfig
                0x00000000       0x40 ..\obj\stm32f10x_rcc.o
 .text.RCC_LSICmd
                0x00000000       0x20 ..\obj\stm32f10x_rcc.o
 .text.RCC_RTCCLKConfig
                0x00000000       0x24 ..\obj\stm32f10x_rcc.o
 .text.RCC_RTCCLKCmd
                0x00000000       0x20 ..\obj\stm32f10x_rcc.o
 .text.RCC_AHBPeriphClockCmd
                0x00000000       0x3c ..\obj\stm32f10x_rcc.o
 .text.RCC_APB2PeriphResetCmd
                0x00000000       0x3c ..\obj\stm32f10x_rcc.o
 .text.RCC_APB1PeriphResetCmd
                0x00000000       0x3c ..\obj\stm32f10x_rcc.o
 .text.RCC_BackupResetCmd
                0x00000000       0x20 ..\obj\stm32f10x_rcc.o
 .text.RCC_ClockSecuritySystemCmd
                0x00000000       0x20 ..\obj\stm32f10x_rcc.o
 .text.RCC_MCOConfig
                0x00000000       0x20 ..\obj\stm32f10x_rcc.o
 .text.RCC_GetFlagStatus
                0x00000000       0x74 ..\obj\stm32f10x_rcc.o
 .text.RCC_ClearFlag
                0x00000000       0x1c ..\obj\stm32f10x_rcc.o
 .text.RCC_GetITStatus
                0x00000000       0x38 ..\obj\stm32f10x_rcc.o
 .text.RCC_ClearITPendingBit
                0x00000000       0x20 ..\obj\stm32f10x_rcc.o
 .text          0x00000000        0x0 ..\obj\stm32f10x_exti.o
 .data          0x00000000        0x0 ..\obj\stm32f10x_exti.o
 .bss           0x00000000        0x0 ..\obj\stm32f10x_exti.o
 .text.EXTI_DeInit
                0x00000000       0x34 ..\obj\stm32f10x_exti.o
 .text.EXTI_StructInit
                0x00000000       0x2c ..\obj\stm32f10x_exti.o
 .text.EXTI_GenerateSWInterrupt
                0x00000000       0x24 ..\obj\stm32f10x_exti.o
 .text.EXTI_GetFlagStatus
                0x00000000       0x34 ..\obj\stm32f10x_exti.o
 .text.EXTI_ClearFlag
                0x00000000       0x1c ..\obj\stm32f10x_exti.o
 .text          0x00000000        0x0 ..\obj\CAT9555.o
 .data          0x00000000        0x0 ..\obj\CAT9555.o
 .bss           0x00000000        0x0 ..\obj\CAT9555.o
 .text.CAT9555_Init
                0x00000000       0x4c ..\obj\CAT9555.o
 .text.IIC_Ack  0x00000000       0x50 ..\obj\CAT9555.o
 .text.IIC_NAck
                0x00000000       0x50 ..\obj\CAT9555.o
 .text.IIC_Read_Byte
                0x00000000       0x8c ..\obj\CAT9555.o
 COMMON         0x00000000        0x4 ..\obj\CAT9555.o
 .text          0x00000000        0x0 ..\obj\stm32f10x_adc.o
 .data          0x00000000        0x0 ..\obj\stm32f10x_adc.o
 .bss           0x00000000        0x0 ..\obj\stm32f10x_adc.o
 .text.ADC_DeInit
                0x00000000       0x74 ..\obj\stm32f10x_adc.o
 .text.ADC_Init
                0x00000000       0xa4 ..\obj\stm32f10x_adc.o
 .text.ADC_StructInit
                0x00000000       0x38 ..\obj\stm32f10x_adc.o
 .text.ADC_Cmd  0x00000000       0x38 ..\obj\stm32f10x_adc.o
 .text.ADC_DMACmd
                0x00000000       0x38 ..\obj\stm32f10x_adc.o
 .text.ADC_ITConfig
                0x00000000       0x44 ..\obj\stm32f10x_adc.o
 .text.ADC_ResetCalibration
                0x00000000       0x20 ..\obj\stm32f10x_adc.o
 .text.ADC_GetResetCalibrationStatus
                0x00000000       0x30 ..\obj\stm32f10x_adc.o
 .text.ADC_StartCalibration
                0x00000000       0x20 ..\obj\stm32f10x_adc.o
 .text.ADC_GetCalibrationStatus
                0x00000000       0x30 ..\obj\stm32f10x_adc.o
 .text.ADC_SoftwareStartConvCmd
                0x00000000       0x38 ..\obj\stm32f10x_adc.o
 .text.ADC_GetSoftwareStartConvStatus
                0x00000000       0x30 ..\obj\stm32f10x_adc.o
 .text.ADC_DiscModeChannelCountConfig
                0x00000000       0x44 ..\obj\stm32f10x_adc.o
 .text.ADC_DiscModeCmd
                0x00000000       0x38 ..\obj\stm32f10x_adc.o
 .text.ADC_RegularChannelConfig
                0x00000000      0x188 ..\obj\stm32f10x_adc.o
 .text.ADC_ExternalTrigConvCmd
                0x00000000       0x38 ..\obj\stm32f10x_adc.o
 .text.ADC_GetConversionValue
                0x00000000       0x1c ..\obj\stm32f10x_adc.o
 .text.ADC_GetDualModeConversionValue
                0x00000000       0x18 ..\obj\stm32f10x_adc.o
 .text.ADC_AutoInjectedConvCmd
                0x00000000       0x38 ..\obj\stm32f10x_adc.o
 .text.ADC_InjectedDiscModeCmd
                0x00000000       0x38 ..\obj\stm32f10x_adc.o
 .text.ADC_ExternalTrigInjectedConvConfig
                0x00000000       0x34 ..\obj\stm32f10x_adc.o
 .text.ADC_ExternalTrigInjectedConvCmd
                0x00000000       0x38 ..\obj\stm32f10x_adc.o
 .text.ADC_SoftwareStartInjectedConvCmd
                0x00000000       0x38 ..\obj\stm32f10x_adc.o
 .text.ADC_GetSoftwareStartInjectedConvCmdStatus
                0x00000000       0x30 ..\obj\stm32f10x_adc.o
 .text.ADC_InjectedChannelConfig
                0x00000000      0x114 ..\obj\stm32f10x_adc.o
 .text.ADC_InjectedSequencerLengthConfig
                0x00000000       0x44 ..\obj\stm32f10x_adc.o
 .text.ADC_SetInjectedOffset
                0x00000000       0x30 ..\obj\stm32f10x_adc.o
 .text.ADC_GetInjectedConversionValue
                0x00000000       0x30 ..\obj\stm32f10x_adc.o
 .text.ADC_AnalogWatchdogCmd
                0x00000000       0x38 ..\obj\stm32f10x_adc.o
 .text.ADC_AnalogWatchdogThresholdsConfig
                0x00000000       0x28 ..\obj\stm32f10x_adc.o
 .text.ADC_AnalogWatchdogSingleChannelConfig
                0x00000000       0x38 ..\obj\stm32f10x_adc.o
 .text.ADC_TempSensorVrefintCmd
                0x00000000       0x38 ..\obj\stm32f10x_adc.o
 .text.ADC_GetFlagStatus
                0x00000000       0x34 ..\obj\stm32f10x_adc.o
 .text.ADC_ClearFlag
                0x00000000       0x20 ..\obj\stm32f10x_adc.o
 .text.ADC_GetITStatus
                0x00000000       0x58 ..\obj\stm32f10x_adc.o
 .text.ADC_ClearITPendingBit
                0x00000000       0x2c ..\obj\stm32f10x_adc.o
 .debug_info    0x00000000      0xb74 ..\obj\stm32f10x_adc.o
 .debug_abbrev  0x00000000      0x198 ..\obj\stm32f10x_adc.o
 .debug_aranges
                0x00000000      0x138 ..\obj\stm32f10x_adc.o
 .debug_ranges  0x00000000      0x128 ..\obj\stm32f10x_adc.o
 .debug_line    0x00000000      0x4e6 ..\obj\stm32f10x_adc.o
 .debug_str     0x00000000      0x6f9 ..\obj\stm32f10x_adc.o
 .comment       0x00000000       0x71 ..\obj\stm32f10x_adc.o
 .ARM.attributes
                0x00000000       0x33 ..\obj\stm32f10x_adc.o
 .debug_frame   0x00000000      0x400 ..\obj\stm32f10x_adc.o
 .text          0x00000000        0x0 ..\obj\stm32f10x_usart.o
 .data          0x00000000        0x0 ..\obj\stm32f10x_usart.o
 .bss           0x00000000        0x0 ..\obj\stm32f10x_usart.o
 .text.USART_DeInit
                0x00000000       0xb8 ..\obj\stm32f10x_usart.o
 .text.USART_StructInit
                0x00000000       0x38 ..\obj\stm32f10x_usart.o
 .text.USART_ClockInit
                0x00000000       0x54 ..\obj\stm32f10x_usart.o
 .text.USART_ClockStructInit
                0x00000000       0x2c ..\obj\stm32f10x_usart.o
 .text.USART_DMACmd
                0x00000000       0x48 ..\obj\stm32f10x_usart.o
 .text.USART_SetAddress
                0x00000000       0x38 ..\obj\stm32f10x_usart.o
 .text.USART_WakeUpConfig
                0x00000000       0x38 ..\obj\stm32f10x_usart.o
 .text.USART_ReceiverWakeUpCmd
                0x00000000       0x40 ..\obj\stm32f10x_usart.o
 .text.USART_LINBreakDetectLengthConfig
                0x00000000       0x38 ..\obj\stm32f10x_usart.o
 .text.USART_LINCmd
                0x00000000       0x40 ..\obj\stm32f10x_usart.o
 .text.USART_SendData
                0x00000000       0x24 ..\obj\stm32f10x_usart.o
 .text.USART_SendBreak
                0x00000000       0x24 ..\obj\stm32f10x_usart.o
 .text.USART_SetGuardTime
                0x00000000       0x3c ..\obj\stm32f10x_usart.o
 .text.USART_SetPrescaler
                0x00000000       0x38 ..\obj\stm32f10x_usart.o
 .text.USART_SmartCardCmd
                0x00000000       0x40 ..\obj\stm32f10x_usart.o
 .text.USART_SmartCardNACKCmd
                0x00000000       0x40 ..\obj\stm32f10x_usart.o
 .text.USART_HalfDuplexCmd
                0x00000000       0x40 ..\obj\stm32f10x_usart.o
 .text.USART_OverSampling8Cmd
                0x00000000       0x44 ..\obj\stm32f10x_usart.o
 .text.USART_OneBitMethodCmd
                0x00000000       0x40 ..\obj\stm32f10x_usart.o
 .text.USART_IrDAConfig
                0x00000000       0x38 ..\obj\stm32f10x_usart.o
 .text.USART_IrDACmd
                0x00000000       0x40 ..\obj\stm32f10x_usart.o
 .text.USART_GetFlagStatus
                0x00000000       0x38 ..\obj\stm32f10x_usart.o
 .text.USART_ClearFlag
                0x00000000       0x20 ..\obj\stm32f10x_usart.o
 .text.USART_ClearITPendingBit
                0x00000000       0x38 ..\obj\stm32f10x_usart.o
 .text          0x00000000        0x0 ..\obj\detect.o
 .data          0x00000000        0x0 ..\obj\detect.o
 .text          0x00000000        0x0 ..\obj\KGOUT.o
 .data          0x00000000        0x0 ..\obj\KGOUT.o
 .bss           0x00000000        0x0 ..\obj\KGOUT.o
 .text          0x00000000        0x0 ..\obj\syscalls.o
 .data          0x00000000        0x0 ..\obj\syscalls.o
 .text.link     0x00000000       0x1c ..\obj\syscalls.o
 .text._close   0x00000000       0x18 ..\obj\syscalls.o
 .text._fstat   0x00000000       0x20 ..\obj\syscalls.o
 .text._isatty  0x00000000       0x18 ..\obj\syscalls.o
 .text._lseek   0x00000000       0x1c ..\obj\syscalls.o
 .text._read    0x00000000       0x1c ..\obj\syscalls.o
 .text._write   0x00000000       0x1c ..\obj\syscalls.o
 .text.abort    0x00000000        0x8 ..\obj\syscalls.o
 .text          0x00000000        0x0 ..\obj\exti.o
 .data          0x00000000        0x0 ..\obj\exti.o
 .text          0x00000000        0x0 ..\obj\stm32f10x_flash.o
 .data          0x00000000        0x0 ..\obj\stm32f10x_flash.o
 .bss           0x00000000        0x0 ..\obj\stm32f10x_flash.o
 .text.FLASH_SetLatency
                0x00000000       0x38 ..\obj\stm32f10x_flash.o
 .text.FLASH_HalfCycleAccessCmd
                0x00000000       0x30 ..\obj\stm32f10x_flash.o
 .text.FLASH_PrefetchBufferCmd
                0x00000000       0x30 ..\obj\stm32f10x_flash.o
 .text.FLASH_Unlock
                0x00000000       0x24 ..\obj\stm32f10x_flash.o
 .text.FLASH_UnlockBank1
                0x00000000       0x24 ..\obj\stm32f10x_flash.o
 .text.FLASH_Lock
                0x00000000       0x1c ..\obj\stm32f10x_flash.o
 .text.FLASH_LockBank1
                0x00000000       0x1c ..\obj\stm32f10x_flash.o
 .text.FLASH_ErasePage
                0x00000000       0x64 ..\obj\stm32f10x_flash.o
 .text.FLASH_EraseAllPages
                0x00000000       0x5c ..\obj\stm32f10x_flash.o
 .text.FLASH_EraseAllBank1Pages
                0x00000000       0x5c ..\obj\stm32f10x_flash.o
 .text.FLASH_EraseOptionBytes
                0x00000000       0xd4 ..\obj\stm32f10x_flash.o
 .text.FLASH_ProgramWord
                0x00000000       0x94 ..\obj\stm32f10x_flash.o
 .text.FLASH_ProgramHalfWord
                0x00000000       0x5c ..\obj\stm32f10x_flash.o
 .text.FLASH_ProgramOptionByteData
                0x00000000       0x78 ..\obj\stm32f10x_flash.o
 .text.FLASH_EnableWriteProtection
                0x00000000      0x118 ..\obj\stm32f10x_flash.o
 .text.FLASH_ReadOutProtection
                0x00000000       0xd4 ..\obj\stm32f10x_flash.o
 .text.FLASH_UserOptionByteConfig
                0x00000000       0x94 ..\obj\stm32f10x_flash.o
 .text.FLASH_GetUserOptionByte
                0x00000000       0x18 ..\obj\stm32f10x_flash.o
 .text.FLASH_GetWriteProtectionOptionByte
                0x00000000       0x18 ..\obj\stm32f10x_flash.o
 .text.FLASH_GetReadOutProtectionStatus
                0x00000000       0x34 ..\obj\stm32f10x_flash.o
 .text.FLASH_GetPrefetchBufferStatus
                0x00000000       0x34 ..\obj\stm32f10x_flash.o
 .text.FLASH_ITConfig
                0x00000000       0x3c ..\obj\stm32f10x_flash.o
 .text.FLASH_GetFlagStatus
                0x00000000       0x54 ..\obj\stm32f10x_flash.o
 .text.FLASH_ClearFlag
                0x00000000       0x1c ..\obj\stm32f10x_flash.o
 .text.FLASH_GetStatus
                0x00000000       0x58 ..\obj\stm32f10x_flash.o
 .text.FLASH_GetBank1Status
                0x00000000       0x58 ..\obj\stm32f10x_flash.o
 .text.FLASH_WaitForLastOperation
                0x00000000       0x44 ..\obj\stm32f10x_flash.o
 .text.FLASH_WaitForLastBank1Operation
                0x00000000       0x44 ..\obj\stm32f10x_flash.o
 .debug_info    0x00000000      0x7b1 ..\obj\stm32f10x_flash.o
 .debug_abbrev  0x00000000      0x18b ..\obj\stm32f10x_flash.o
 .debug_aranges
                0x00000000       0xf8 ..\obj\stm32f10x_flash.o
 .debug_ranges  0x00000000       0xe8 ..\obj\stm32f10x_flash.o
 .debug_line    0x00000000      0x49e ..\obj\stm32f10x_flash.o
 .debug_str     0x00000000      0x5e6 ..\obj\stm32f10x_flash.o
 .comment       0x00000000       0x71 ..\obj\stm32f10x_flash.o
 .ARM.attributes
                0x00000000       0x33 ..\obj\stm32f10x_flash.o
 .debug_frame   0x00000000      0x338 ..\obj\stm32f10x_flash.o
 .text          0x00000000        0x0 ..\obj\stm32f10x_sdio.o
 .data          0x00000000        0x0 ..\obj\stm32f10x_sdio.o
 .bss           0x00000000        0x0 ..\obj\stm32f10x_sdio.o
 .text.SDIO_DeInit
                0x00000000       0x4c ..\obj\stm32f10x_sdio.o
 .text.SDIO_Init
                0x00000000       0x5c ..\obj\stm32f10x_sdio.o
 .text.SDIO_StructInit
                0x00000000       0x38 ..\obj\stm32f10x_sdio.o
 .text.SDIO_ClockCmd
                0x00000000       0x20 ..\obj\stm32f10x_sdio.o
 .text.SDIO_SetPowerState
                0x00000000       0x30 ..\obj\stm32f10x_sdio.o
 .text.SDIO_GetPowerState
                0x00000000       0x1c ..\obj\stm32f10x_sdio.o
 .text.SDIO_ITConfig
                0x00000000       0x3c ..\obj\stm32f10x_sdio.o
 .text.SDIO_DMACmd
                0x00000000       0x20 ..\obj\stm32f10x_sdio.o
 .text.SDIO_SendCommand
                0x00000000       0x58 ..\obj\stm32f10x_sdio.o
 .text.SDIO_CmdStructInit
                0x00000000       0x30 ..\obj\stm32f10x_sdio.o
 .text.SDIO_GetCommandResponse
                0x00000000       0x18 ..\obj\stm32f10x_sdio.o
 .text.SDIO_GetResponse
                0x00000000       0x28 ..\obj\stm32f10x_sdio.o
 .text.SDIO_DataConfig
                0x00000000       0x5c ..\obj\stm32f10x_sdio.o
 .text.SDIO_DataStructInit
                0x00000000       0x38 ..\obj\stm32f10x_sdio.o
 .text.SDIO_GetDataCounter
                0x00000000       0x18 ..\obj\stm32f10x_sdio.o
 .text.SDIO_ReadData
                0x00000000       0x18 ..\obj\stm32f10x_sdio.o
 .text.SDIO_WriteData
                0x00000000       0x20 ..\obj\stm32f10x_sdio.o
 .text.SDIO_GetFIFOCount
                0x00000000       0x18 ..\obj\stm32f10x_sdio.o
 .text.SDIO_StartSDIOReadWait
                0x00000000       0x20 ..\obj\stm32f10x_sdio.o
 .text.SDIO_StopSDIOReadWait
                0x00000000       0x20 ..\obj\stm32f10x_sdio.o
 .text.SDIO_SetSDIOReadWaitMode
                0x00000000       0x1c ..\obj\stm32f10x_sdio.o
 .text.SDIO_SetSDIOOperation
                0x00000000       0x20 ..\obj\stm32f10x_sdio.o
 .text.SDIO_SendSDIOSuspendCmd
                0x00000000       0x20 ..\obj\stm32f10x_sdio.o
 .text.SDIO_CommandCompletionCmd
                0x00000000       0x20 ..\obj\stm32f10x_sdio.o
 .text.SDIO_CEATAITCmd
                0x00000000       0x2c ..\obj\stm32f10x_sdio.o
 .text.SDIO_SendCEATACmd
                0x00000000       0x20 ..\obj\stm32f10x_sdio.o
 .text.SDIO_GetFlagStatus
                0x00000000       0x34 ..\obj\stm32f10x_sdio.o
 .text.SDIO_ClearFlag
                0x00000000       0x1c ..\obj\stm32f10x_sdio.o
 .text.SDIO_GetITStatus
                0x00000000       0x34 ..\obj\stm32f10x_sdio.o
 .text.SDIO_ClearITPendingBit
                0x00000000       0x1c ..\obj\stm32f10x_sdio.o
 .debug_info    0x00000000      0x7eb ..\obj\stm32f10x_sdio.o
 .debug_abbrev  0x00000000      0x1af ..\obj\stm32f10x_sdio.o
 .debug_aranges
                0x00000000      0x108 ..\obj\stm32f10x_sdio.o
 .debug_ranges  0x00000000       0xf8 ..\obj\stm32f10x_sdio.o
 .debug_line    0x00000000      0x410 ..\obj\stm32f10x_sdio.o
 .debug_str     0x00000000      0x62e ..\obj\stm32f10x_sdio.o
 .comment       0x00000000       0x71 ..\obj\stm32f10x_sdio.o
 .ARM.attributes
                0x00000000       0x33 ..\obj\stm32f10x_sdio.o
 .debug_frame   0x00000000      0x340 ..\obj\stm32f10x_sdio.o
 .text          0x00000000        0x0 ..\obj\misc.o
 .data          0x00000000        0x0 ..\obj\misc.o
 .bss           0x00000000        0x0 ..\obj\misc.o
 .text.NVIC_SetVectorTable
                0x00000000       0x2c ..\obj\misc.o
 .text.NVIC_SystemLPConfig
                0x00000000       0x40 ..\obj\misc.o
 .text          0x00000000        0x0 ..\obj\stm32f10x_spi.o
 .data          0x00000000        0x0 ..\obj\stm32f10x_spi.o
 .bss           0x00000000        0x0 ..\obj\stm32f10x_spi.o
 .text.SPI_I2S_DeInit
                0x00000000       0x74 ..\obj\stm32f10x_spi.o
 .text.SPI_Init
                0x00000000       0x88 ..\obj\stm32f10x_spi.o
 .text.I2S_Init
                0x00000000      0x164 ..\obj\stm32f10x_spi.o
 .text.SPI_StructInit
                0x00000000       0x48 ..\obj\stm32f10x_spi.o
 .text.I2S_StructInit
                0x00000000       0x38 ..\obj\stm32f10x_spi.o
 .text.SPI_Cmd  0x00000000       0x40 ..\obj\stm32f10x_spi.o
 .text.I2S_Cmd  0x00000000       0x40 ..\obj\stm32f10x_spi.o
 .text.SPI_I2S_ITConfig
                0x00000000       0x60 ..\obj\stm32f10x_spi.o
 .text.SPI_I2S_DMACmd
                0x00000000       0x48 ..\obj\stm32f10x_spi.o
 .text.SPI_I2S_SendData
                0x00000000       0x1c ..\obj\stm32f10x_spi.o
 .text.SPI_I2S_ReceiveData
                0x00000000       0x1c ..\obj\stm32f10x_spi.o
 .text.SPI_NSSInternalSoftwareConfig
                0x00000000       0x44 ..\obj\stm32f10x_spi.o
 .text.SPI_SSOutputCmd
                0x00000000       0x40 ..\obj\stm32f10x_spi.o
 .text.SPI_DataSizeConfig
                0x00000000       0x38 ..\obj\stm32f10x_spi.o
 .text.SPI_TransmitCRC
                0x00000000       0x24 ..\obj\stm32f10x_spi.o
 .text.SPI_CalculateCRC
                0x00000000       0x40 ..\obj\stm32f10x_spi.o
 .text.SPI_GetCRC
                0x00000000       0x34 ..\obj\stm32f10x_spi.o
 .text.SPI_GetCRCPolynomial
                0x00000000       0x1c ..\obj\stm32f10x_spi.o
 .text.SPI_BiDirectionalLineConfig
                0x00000000       0x40 ..\obj\stm32f10x_spi.o
 .text.SPI_I2S_GetFlagStatus
                0x00000000       0x38 ..\obj\stm32f10x_spi.o
 .text.SPI_I2S_ClearFlag
                0x00000000       0x20 ..\obj\stm32f10x_spi.o
 .text.SPI_I2S_GetITStatus
                0x00000000       0x78 ..\obj\stm32f10x_spi.o
 .text.SPI_I2S_ClearITPendingBit
                0x00000000       0x34 ..\obj\stm32f10x_spi.o
 .debug_info    0x00000000      0x8f3 ..\obj\stm32f10x_spi.o
 .debug_abbrev  0x00000000      0x17e ..\obj\stm32f10x_spi.o
 .debug_aranges
                0x00000000       0xd0 ..\obj\stm32f10x_spi.o
 .debug_ranges  0x00000000       0xc0 ..\obj\stm32f10x_spi.o
 .debug_line    0x00000000      0x3e6 ..\obj\stm32f10x_spi.o
 .debug_str     0x00000000      0x5fb ..\obj\stm32f10x_spi.o
 .comment       0x00000000       0x71 ..\obj\stm32f10x_spi.o
 .ARM.attributes
                0x00000000       0x33 ..\obj\stm32f10x_spi.o
 .debug_frame   0x00000000      0x29c ..\obj\stm32f10x_spi.o
 .text          0x00000000        0x0 ..\obj\stm32f10x_i2c.o
 .data          0x00000000        0x0 ..\obj\stm32f10x_i2c.o
 .bss           0x00000000        0x0 ..\obj\stm32f10x_i2c.o
 .text.I2C_DeInit
                0x00000000       0x44 ..\obj\stm32f10x_i2c.o
 .text.I2C_Init
                0x00000000      0x184 ..\obj\stm32f10x_i2c.o
 .text.I2C_StructInit
                0x00000000       0x3c ..\obj\stm32f10x_i2c.o
 .text.I2C_Cmd  0x00000000       0x40 ..\obj\stm32f10x_i2c.o
 .text.I2C_DMACmd
                0x00000000       0x40 ..\obj\stm32f10x_i2c.o
 .text.I2C_DMALastTransferCmd
                0x00000000       0x40 ..\obj\stm32f10x_i2c.o
 .text.I2C_GenerateSTART
                0x00000000       0x40 ..\obj\stm32f10x_i2c.o
 .text.I2C_GenerateSTOP
                0x00000000       0x40 ..\obj\stm32f10x_i2c.o
 .text.I2C_AcknowledgeConfig
                0x00000000       0x40 ..\obj\stm32f10x_i2c.o
 .text.I2C_OwnAddress2Config
                0x00000000       0x40 ..\obj\stm32f10x_i2c.o
 .text.I2C_DualAddressCmd
                0x00000000       0x40 ..\obj\stm32f10x_i2c.o
 .text.I2C_GeneralCallCmd
                0x00000000       0x40 ..\obj\stm32f10x_i2c.o
 .text.I2C_ITConfig
                0x00000000       0x48 ..\obj\stm32f10x_i2c.o
 .text.I2C_SendData
                0x00000000       0x20 ..\obj\stm32f10x_i2c.o
 .text.I2C_ReceiveData
                0x00000000       0x1c ..\obj\stm32f10x_i2c.o
 .text.I2C_Send7bitAddress
                0x00000000       0x3c ..\obj\stm32f10x_i2c.o
 .text.I2C_ReadRegister
                0x00000000       0x30 ..\obj\stm32f10x_i2c.o
 .text.I2C_SoftwareResetCmd
                0x00000000       0x44 ..\obj\stm32f10x_i2c.o
 .text.I2C_NACKPositionConfig
                0x00000000       0x40 ..\obj\stm32f10x_i2c.o
 .text.I2C_SMBusAlertConfig
                0x00000000       0x40 ..\obj\stm32f10x_i2c.o
 .text.I2C_TransmitPEC
                0x00000000       0x40 ..\obj\stm32f10x_i2c.o
 .text.I2C_PECPositionConfig
                0x00000000       0x40 ..\obj\stm32f10x_i2c.o
 .text.I2C_CalculatePEC
                0x00000000       0x40 ..\obj\stm32f10x_i2c.o
 .text.I2C_GetPEC
                0x00000000       0x20 ..\obj\stm32f10x_i2c.o
 .text.I2C_ARPCmd
                0x00000000       0x40 ..\obj\stm32f10x_i2c.o
 .text.I2C_StretchClockCmd
                0x00000000       0x40 ..\obj\stm32f10x_i2c.o
 .text.I2C_FastModeDutyCycleConfig
                0x00000000       0x40 ..\obj\stm32f10x_i2c.o
 .text.I2C_CheckEvent
                0x00000000       0x60 ..\obj\stm32f10x_i2c.o
 .text.I2C_GetLastEvent
                0x00000000       0x44 ..\obj\stm32f10x_i2c.o
 .text.I2C_GetFlagStatus
                0x00000000       0x68 ..\obj\stm32f10x_i2c.o
 .text.I2C_ClearFlag
                0x00000000       0x2c ..\obj\stm32f10x_i2c.o
 .text.I2C_GetITStatus
                0x00000000       0x5c ..\obj\stm32f10x_i2c.o
 .text.I2C_ClearITPendingBit
                0x00000000       0x2c ..\obj\stm32f10x_i2c.o
 .debug_info    0x00000000      0xb00 ..\obj\stm32f10x_i2c.o
 .debug_abbrev  0x00000000      0x164 ..\obj\stm32f10x_i2c.o
 .debug_aranges
                0x00000000      0x120 ..\obj\stm32f10x_i2c.o
 .debug_ranges  0x00000000      0x110 ..\obj\stm32f10x_i2c.o
 .debug_line    0x00000000      0x49b ..\obj\stm32f10x_i2c.o
 .debug_str     0x00000000      0x664 ..\obj\stm32f10x_i2c.o
 .comment       0x00000000       0x71 ..\obj\stm32f10x_i2c.o
 .ARM.attributes
                0x00000000       0x33 ..\obj\stm32f10x_i2c.o
 .debug_frame   0x00000000      0x3b4 ..\obj\stm32f10x_i2c.o
 .text          0x00000000        0x0 ..\obj\stm32f10x_bkp.o
 .data          0x00000000        0x0 ..\obj\stm32f10x_bkp.o
 .bss           0x00000000        0x0 ..\obj\stm32f10x_bkp.o
 .text.BKP_DeInit
                0x00000000       0x14 ..\obj\stm32f10x_bkp.o
 .text.BKP_TamperPinLevelConfig
                0x00000000       0x20 ..\obj\stm32f10x_bkp.o
 .text.BKP_TamperPinCmd
                0x00000000       0x20 ..\obj\stm32f10x_bkp.o
 .text.BKP_ITConfig
                0x00000000       0x20 ..\obj\stm32f10x_bkp.o
 .text.BKP_RTCOutputConfig
                0x00000000       0x38 ..\obj\stm32f10x_bkp.o
 .text.BKP_SetRTCCalibrationValue
                0x00000000       0x3c ..\obj\stm32f10x_bkp.o
 .text.BKP_WriteBackupRegister
                0x00000000       0x34 ..\obj\stm32f10x_bkp.o
 .text.BKP_ReadBackupRegister
                0x00000000       0x30 ..\obj\stm32f10x_bkp.o
 .text.BKP_GetFlagStatus
                0x00000000       0x18 ..\obj\stm32f10x_bkp.o
 .text.BKP_ClearFlag
                0x00000000       0x20 ..\obj\stm32f10x_bkp.o
 .text.BKP_GetITStatus
                0x00000000       0x18 ..\obj\stm32f10x_bkp.o
 .text.BKP_ClearITPendingBit
                0x00000000       0x20 ..\obj\stm32f10x_bkp.o
 .debug_info    0x00000000      0x79d ..\obj\stm32f10x_bkp.o
 .debug_abbrev  0x00000000      0x163 ..\obj\stm32f10x_bkp.o
 .debug_aranges
                0x00000000       0x78 ..\obj\stm32f10x_bkp.o
 .debug_ranges  0x00000000       0x68 ..\obj\stm32f10x_bkp.o
 .debug_line    0x00000000      0x25c ..\obj\stm32f10x_bkp.o
 .debug_str     0x00000000      0x5b3 ..\obj\stm32f10x_bkp.o
 .comment       0x00000000       0x71 ..\obj\stm32f10x_bkp.o
 .ARM.attributes
                0x00000000       0x33 ..\obj\stm32f10x_bkp.o
 .debug_frame   0x00000000      0x150 ..\obj\stm32f10x_bkp.o
 .text          0x00000000        0x0 ..\obj\usart.o
 .data          0x00000000        0x0 ..\obj\usart.o
 .text          0x00000000        0x0 ..\obj\stm32f10x_iwdg.o
 .data          0x00000000        0x0 ..\obj\stm32f10x_iwdg.o
 .bss           0x00000000        0x0 ..\obj\stm32f10x_iwdg.o
 .text.IWDG_GetFlagStatus
                0x00000000       0x38 ..\obj\stm32f10x_iwdg.o
 .data          0x00000000        0x0 c:/program files/gnu tools arm embedded/4.8 2014q3/bin/../lib/gcc/arm-none-eabi/4.8.4/armv7-m\libgcc.a(_arm_addsubdf3.o)
 .bss           0x00000000        0x0 c:/program files/gnu tools arm embedded/4.8 2014q3/bin/../lib/gcc/arm-none-eabi/4.8.4/armv7-m\libgcc.a(_arm_addsubdf3.o)
 .data          0x00000000        0x0 c:/program files/gnu tools arm embedded/4.8 2014q3/bin/../lib/gcc/arm-none-eabi/4.8.4/armv7-m\libgcc.a(_arm_muldivdf3.o)
 .bss           0x00000000        0x0 c:/program files/gnu tools arm embedded/4.8 2014q3/bin/../lib/gcc/arm-none-eabi/4.8.4/armv7-m\libgcc.a(_arm_muldivdf3.o)
 .data          0x00000000        0x0 c:/program files/gnu tools arm embedded/4.8 2014q3/bin/../lib/gcc/arm-none-eabi/4.8.4/armv7-m\libgcc.a(_arm_fixunsdfsi.o)
 .bss           0x00000000        0x0 c:/program files/gnu tools arm embedded/4.8 2014q3/bin/../lib/gcc/arm-none-eabi/4.8.4/armv7-m\libgcc.a(_arm_fixunsdfsi.o)
 .text          0x00000000        0x0 c:/program files/gnu tools arm embedded/4.8 2014q3/bin/../lib/gcc/arm-none-eabi/4.8.4/../../../../arm-none-eabi/lib/armv7-m\libg.a(lib_a-malloc.o)
 .data          0x00000000        0x0 c:/program files/gnu tools arm embedded/4.8 2014q3/bin/../lib/gcc/arm-none-eabi/4.8.4/../../../../arm-none-eabi/lib/armv7-m\libg.a(lib_a-malloc.o)
 .bss           0x00000000        0x0 c:/program files/gnu tools arm embedded/4.8 2014q3/bin/../lib/gcc/arm-none-eabi/4.8.4/../../../../arm-none-eabi/lib/armv7-m\libg.a(lib_a-malloc.o)
 .text          0x00000000        0x0 c:/program files/gnu tools arm embedded/4.8 2014q3/bin/../lib/gcc/arm-none-eabi/4.8.4/../../../../arm-none-eabi/lib/armv7-m\libg.a(lib_a-mallocr.o)
 .data          0x00000000        0x0 c:/program files/gnu tools arm embedded/4.8 2014q3/bin/../lib/gcc/arm-none-eabi/4.8.4/../../../../arm-none-eabi/lib/armv7-m\libg.a(lib_a-mallocr.o)
 .bss           0x00000000        0x0 c:/program files/gnu tools arm embedded/4.8 2014q3/bin/../lib/gcc/arm-none-eabi/4.8.4/../../../../arm-none-eabi/lib/armv7-m\libg.a(lib_a-mallocr.o)
 .text          0x00000000        0x0 c:/program files/gnu tools arm embedded/4.8 2014q3/bin/../lib/gcc/arm-none-eabi/4.8.4/../../../../arm-none-eabi/lib/armv7-m\libg.a(lib_a-memset.o)
 .data          0x00000000        0x0 c:/program files/gnu tools arm embedded/4.8 2014q3/bin/../lib/gcc/arm-none-eabi/4.8.4/../../../../arm-none-eabi/lib/armv7-m\libg.a(lib_a-memset.o)
 .bss           0x00000000        0x0 c:/program files/gnu tools arm embedded/4.8 2014q3/bin/../lib/gcc/arm-none-eabi/4.8.4/../../../../arm-none-eabi/lib/armv7-m\libg.a(lib_a-memset.o)
 .text          0x00000000        0x0 c:/program files/gnu tools arm embedded/4.8 2014q3/bin/../lib/gcc/arm-none-eabi/4.8.4/../../../../arm-none-eabi/lib/armv7-m\libg.a(lib_a-mlock.o)
 .data          0x00000000        0x0 c:/program files/gnu tools arm embedded/4.8 2014q3/bin/../lib/gcc/arm-none-eabi/4.8.4/../../../../arm-none-eabi/lib/armv7-m\libg.a(lib_a-mlock.o)
 .bss           0x00000000        0x0 c:/program files/gnu tools arm embedded/4.8 2014q3/bin/../lib/gcc/arm-none-eabi/4.8.4/../../../../arm-none-eabi/lib/armv7-m\libg.a(lib_a-mlock.o)
 .text          0x00000000        0x0 c:/program files/gnu tools arm embedded/4.8 2014q3/bin/../lib/gcc/arm-none-eabi/4.8.4/../../../../arm-none-eabi/lib/armv7-m\libg.a(lib_a-sbrkr.o)
 .data          0x00000000        0x0 c:/program files/gnu tools arm embedded/4.8 2014q3/bin/../lib/gcc/arm-none-eabi/4.8.4/../../../../arm-none-eabi/lib/armv7-m\libg.a(lib_a-sbrkr.o)
 .bss           0x00000000        0x0 c:/program files/gnu tools arm embedded/4.8 2014q3/bin/../lib/gcc/arm-none-eabi/4.8.4/../../../../arm-none-eabi/lib/armv7-m\libg.a(lib_a-sbrkr.o)
 .text          0x00000000        0x0 c:/program files/gnu tools arm embedded/4.8 2014q3/bin/../lib/gcc/arm-none-eabi/4.8.4/../../../../arm-none-eabi/lib/armv7-m\libg.a(lib_a-freer.o)
 .data          0x00000000        0x0 c:/program files/gnu tools arm embedded/4.8 2014q3/bin/../lib/gcc/arm-none-eabi/4.8.4/../../../../arm-none-eabi/lib/armv7-m\libg.a(lib_a-freer.o)
 .bss           0x00000000        0x0 c:/program files/gnu tools arm embedded/4.8 2014q3/bin/../lib/gcc/arm-none-eabi/4.8.4/../../../../arm-none-eabi/lib/armv7-m\libg.a(lib_a-freer.o)
 .text          0x00000000        0x0 c:/program files/gnu tools arm embedded/4.8 2014q3/bin/../lib/gcc/arm-none-eabi/4.8.4/../../../../arm-none-eabi/lib/armv7-m\libg.a(lib_a-reent.o)
 .data          0x00000000        0x0 c:/program files/gnu tools arm embedded/4.8 2014q3/bin/../lib/gcc/arm-none-eabi/4.8.4/../../../../arm-none-eabi/lib/armv7-m\libg.a(lib_a-reent.o)
 .bss           0x00000000        0x0 c:/program files/gnu tools arm embedded/4.8 2014q3/bin/../lib/gcc/arm-none-eabi/4.8.4/../../../../arm-none-eabi/lib/armv7-m\libg.a(lib_a-reent.o)
 .text.cleanup_glue
                0x00000000       0x1c c:/program files/gnu tools arm embedded/4.8 2014q3/bin/../lib/gcc/arm-none-eabi/4.8.4/../../../../arm-none-eabi/lib/armv7-m\libg.a(lib_a-reent.o)
 .text._reclaim_reent
                0x00000000       0x90 c:/program files/gnu tools arm embedded/4.8 2014q3/bin/../lib/gcc/arm-none-eabi/4.8.4/../../../../arm-none-eabi/lib/armv7-m\libg.a(lib_a-reent.o)

Memory Configuration

Name             Origin             Length             Attributes
rom              0x08000000         0x00080000         xr
ram              0x20000000         0x00010000         xrw
*default*        0x00000000         0xffffffff

Linker script and memory map

                0x20010000                _eram = 0x20010000

.text           0x08000000     0x5960
 *(.isr_vector)
 .isr_vector    0x08000000      0x134 ..\obj\startup_stm32f10x_hd.o
                0x08000000                g_pfnVectors
 *(.text*)
 .text.delay_init
                0x08000134       0x48 ..\obj\delay.o
                0x08000134                delay_init
 .text.delay_us
                0x0800017c       0x68 ..\obj\delay.o
                0x0800017c                delay_us
 .text.delay_ms
                0x080001e4       0x68 ..\obj\delay.o
                0x080001e4                delay_ms
 .text.TIM_TimeBaseInit
                0x0800024c       0xf8 ..\obj\stm32f10x_tim.o
                0x0800024c                TIM_TimeBaseInit
 .text.TIM_Cmd  0x08000344       0x40 ..\obj\stm32f10x_tim.o
                0x08000344                TIM_Cmd
 .text.TIM_ITConfig
                0x08000384       0x48 ..\obj\stm32f10x_tim.o
                0x08000384                TIM_ITConfig
 .text.TIM_GetITStatus
                0x080003cc       0x54 ..\obj\stm32f10x_tim.o
                0x080003cc                TIM_GetITStatus
 .text.TIM_ClearITPendingBit
                0x08000420       0x20 ..\obj\stm32f10x_tim.o
                0x08000420                TIM_ClearITPendingBit
 .text.TIM3_Int_Init
                0x08000440       0x68 ..\obj\timer.o
                0x08000440                TIM3_Int_Init
 .text.TIM3_IRQHandler
                0x080004a8       0x24 ..\obj\timer.o
                0x080004a8                TIM3_IRQHandler
 .text.SystemInit
                0x080004cc       0x68 ..\obj\system_stm32f10x.o
                0x080004cc                SystemInit
 .text.SetSysClock
                0x08000534        0xc ..\obj\system_stm32f10x.o
 .text.SetSysClockTo72
                0x08000540      0x100 ..\obj\system_stm32f10x.o
 .text.LED_Init
                0x08000640       0x38 ..\obj\led.o
                0x08000640                LED_Init
 .text.Default_Reset_Handler
                0x08000678       0x60 ..\obj\startup_stm32f10x_hd.o
                0x08000678                Default_Reset_Handler
                0x08000678                Reset_Handler
 .text.Default_Handler
                0x080006d8        0x8 ..\obj\startup_stm32f10x_hd.o
                0x080006d8                EXTI2_IRQHandler
                0x080006d8                TIM8_TRG_COM_IRQHandler
                0x080006d8                TIM8_CC_IRQHandler
                0x080006d8                DebugMon_Handler
                0x080006d8                TIM1_CC_IRQHandler
                0x080006d8                HardFault_Handler
                0x080006d8                TIM6_IRQHandler
                0x080006d8                SysTick_Handler
                0x080006d8                PVD_IRQHandler
                0x080006d8                SDIO_IRQHandler
                0x080006d8                PendSV_Handler
                0x080006d8                NMI_Handler
                0x080006d8                EXTI3_IRQHandler
                0x080006d8                EXTI0_IRQHandler
                0x080006d8                I2C2_EV_IRQHandler
                0x080006d8                UsageFault_Handler
                0x080006d8                ADC1_2_IRQHandler
                0x080006d8                SPI1_IRQHandler
                0x080006d8                TAMPER_IRQHandler
                0x080006d8                TIM8_UP_IRQHandler
                0x080006d8                DMA2_Channel2_IRQHandler
                0x080006d8                DMA1_Channel4_IRQHandler
                0x080006d8                USART3_IRQHandler
                0x080006d8                RTC_IRQHandler
                0x080006d8                DMA1_Channel7_IRQHandler
                0x080006d8                CAN1_RX1_IRQHandler
                0x080006d8                UART5_IRQHandler
                0x080006d8                ADC3_IRQHandler
                0x080006d8                TIM4_IRQHandler
                0x080006d8                DMA2_Channel1_IRQHandler
                0x080006d8                I2C1_EV_IRQHandler
                0x080006d8                DMA1_Channel6_IRQHandler
                0x080006d8                UART4_IRQHandler
                0x080006d8                RCC_IRQHandler
                0x080006d8                TIM1_TRG_COM_IRQHandler
                0x080006d8                DMA1_Channel1_IRQHandler
                0x080006d8                TIM7_IRQHandler
                0x080006d8                TIM5_IRQHandler
                0x080006d8                EXTI9_5_IRQHandler
                0x080006d8                SPI2_IRQHandler
                0x080006d8                MemManage_Handler
                0x080006d8                SVC_Handler
                0x080006d8                DMA1_Channel5_IRQHandler
                0x080006d8                EXTI4_IRQHandler
                0x080006d8                USB_LP_CAN1_RX0_IRQHandler
                0x080006d8                USB_HP_CAN1_TX_IRQHandler
                0x080006d8                DMA1_Channel3_IRQHandler
                0x080006d8                FSMC_IRQHandler
                0x080006d8                TIM1_UP_IRQHandler
                0x080006d8                WWDG_IRQHandler
                0x080006d8                TIM2_IRQHandler
                0x080006d8                TIM1_BRK_IRQHandler
                0x080006d8                EXTI1_IRQHandler
                0x080006d8                RTCAlarm_IRQHandler
                0x080006d8                DMA2_Channel4_5_IRQHandler
                0x080006d8                I2C2_ER_IRQHandler
                0x080006d8                DMA1_Channel2_IRQHandler
                0x080006d8                TIM8_BRK_IRQHandler
                0x080006d8                CAN1_SCE_IRQHandler
                0x080006d8                FLASH_IRQHandler
                0x080006d8                BusFault_Handler
                0x080006d8                USART1_IRQHandler
                0x080006d8                SPI3_IRQHandler
                0x080006d8                I2C1_ER_IRQHandler
                0x080006d8                USBWakeUp_IRQHandler
                0x080006d8                DMA2_Channel3_IRQHandler
 .text.SPI2_Init
                0x080006e0       0x58 ..\obj\AD974.o
                0x080006e0                SPI2_Init
 .text.AD974_Init
                0x08000738       0x54 ..\obj\AD974.o
                0x08000738                AD974_Init
 .text.SPI_Start
                0x0800078c       0x34 ..\obj\AD974.o
                0x0800078c                SPI_Start
 .text.SPI_READ_DATA
                0x080007c0       0x60 ..\obj\AD974.o
                0x080007c0                SPI_READ_DATA
 .text.AD974_ReadData
                0x08000820      0x148 ..\obj\AD974.o
                0x08000820                AD974_ReadData
 .text.CMD_Init
                0x08000968       0x38 ..\obj\CMD.o
                0x08000968                CMD_Init
 .text.Read_Tempreture
                0x080009a0       0xcc ..\obj\CMD.o
 .text.Report   0x08000a6c       0xf4 ..\obj\CMD.o
 .text.Report_Dula_Wela
                0x08000b60       0xf4 ..\obj\CMD.o
 .text.Port_out
                0x08000c54       0x10 ..\obj\CMD.o
 .text.Port_out_Dula_Wela
                0x08000c64       0x10 ..\obj\CMD.o
 .text.CmdParse
                0x08000c74       0x48 ..\obj\CMD.o
                0x08000c74                CmdParse
 .text.GPIO_Init
                0x08000cbc      0x178 ..\obj\stm32f10x_gpio.o
                0x08000cbc                GPIO_Init
 .text.GPIO_ReadInputDataBit
                0x08000e34       0x34 ..\obj\stm32f10x_gpio.o
                0x08000e34                GPIO_ReadInputDataBit
 .text.GPIO_SetBits
                0x08000e68       0x1c ..\obj\stm32f10x_gpio.o
                0x08000e68                GPIO_SetBits
 .text.GPIO_ResetBits
                0x08000e84       0x1c ..\obj\stm32f10x_gpio.o
                0x08000e84                GPIO_ResetBits
 .text.GPIO_EXTILineConfig
                0x08000ea0       0x7c ..\obj\stm32f10x_gpio.o
                0x08000ea0                GPIO_EXTILineConfig
 .text.NVIC_Configuration
                0x08000f1c       0x10 ..\obj\sys.o
                0x08000f1c                NVIC_Configuration
 .text.main     0x08000f2c       0x98 ..\obj\main.o
                0x08000f2c                main
 .text.IWDG_Init
                0x08000fc4       0x34 ..\obj\wdg.o
                0x08000fc4                IWDG_Init
 .text.IWDG_Feed
                0x08000ff8        0xc ..\obj\wdg.o
                0x08000ff8                IWDG_Feed
 .text.PutChar  0x08001004       0x20 ..\obj\printf.o
                0x08001004                PutChar
 .text.PutString
                0x08001024       0x3c ..\obj\printf.o
                0x08001024                PutString
 .text.PutUnsignedInt
                0x08001060       0xa0 ..\obj\printf.o
                0x08001060                PutUnsignedInt
 .text.PutSignedInt
                0x08001100       0xfc ..\obj\printf.o
                0x08001100                PutSignedInt
 .text.PutHexa  0x080011fc       0xd4 ..\obj\printf.o
                0x080011fc                PutHexa
 .text.vsnprintf
                0x080012d0      0x254 ..\obj\printf.o
                0x080012d0                vsnprintf
 .text.RCC_GetClocksFreq
                0x08001524      0x164 ..\obj\stm32f10x_rcc.o
                0x08001524                RCC_GetClocksFreq
 .text.RCC_APB2PeriphClockCmd
                0x08001688       0x3c ..\obj\stm32f10x_rcc.o
                0x08001688                RCC_APB2PeriphClockCmd
 .text.RCC_APB1PeriphClockCmd
                0x080016c4       0x3c ..\obj\stm32f10x_rcc.o
                0x080016c4                RCC_APB1PeriphClockCmd
 .text.EXTI_Init
                0x08001700       0xdc ..\obj\stm32f10x_exti.o
                0x08001700                EXTI_Init
 .text.EXTI_GetITStatus
                0x080017dc       0x48 ..\obj\stm32f10x_exti.o
                0x080017dc                EXTI_GetITStatus
 .text.EXTI_ClearITPendingBit
                0x08001824       0x1c ..\obj\stm32f10x_exti.o
                0x08001824                EXTI_ClearITPendingBit
 .text.IIC_Init
                0x08001840       0x38 ..\obj\CAT9555.o
                0x08001840                IIC_Init
 .text.IIC_Start
                0x08001878       0x50 ..\obj\CAT9555.o
                0x08001878                IIC_Start
 .text.IIC_Stop
                0x080018c8       0x50 ..\obj\CAT9555.o
                0x080018c8                IIC_Stop
 .text.IIC_Wait_Ack
                0x08001918       0x78 ..\obj\CAT9555.o
                0x08001918                IIC_Wait_Ack
 .text.IIC_Send_Byte
                0x08001990       0x88 ..\obj\CAT9555.o
                0x08001990                IIC_Send_Byte
 .text.CAT9555_WriteCFG
                0x08001a18       0x60 ..\obj\CAT9555.o
                0x08001a18                CAT9555_WriteCFG
 .text.CAT9555_Write_OneByte
                0x08001a78       0x60 ..\obj\CAT9555.o
                0x08001a78                CAT9555_Write_OneByte
 .text.USART_Init
                0x08001ad8      0x174 ..\obj\stm32f10x_usart.o
                0x08001ad8                USART_Init
 .text.USART_Cmd
                0x08001c4c       0x40 ..\obj\stm32f10x_usart.o
                0x08001c4c                USART_Cmd
 .text.USART_ITConfig
                0x08001c8c       0x90 ..\obj\stm32f10x_usart.o
                0x08001c8c                USART_ITConfig
 .text.USART_ReceiveData
                0x08001d1c       0x20 ..\obj\stm32f10x_usart.o
                0x08001d1c                USART_ReceiveData
 .text.USART_GetITStatus
                0x08001d3c       0xb0 ..\obj\stm32f10x_usart.o
                0x08001d3c                USART_GetITStatus
 .text.detectint
                0x08001dec       0xf0 ..\obj\detect.o
                0x08001dec                detectint
 .text.WinPTest
                0x08001edc       0xa0 ..\obj\detect.o
                0x08001edc                WinPTest
 .text.WinNTest
                0x08001f7c       0xa0 ..\obj\detect.o
 .text.WinTTest
                0x0800201c       0x8c ..\obj\detect.o
 .text.WinTestOut
                0x080020a8       0xc4 ..\obj\detect.o
                0x080020a8                WinTestOut
 .text.InputDetect
                0x0800216c       0x54 ..\obj\detect.o
 .text.Detect   0x080021c0      0x734 ..\obj\detect.o
                0x080021c0                Detect
 .text.Detect_Dula_Wela
                0x080028f4      0x734 ..\obj\detect.o
                0x080028f4                Detect_Dula_Wela
 .text.DO_MeInit
                0x08003028       0x50 ..\obj\KGOUT.o
                0x08003028                DO_MeInit
 .text.KGOUT_Init
                0x08003078      0x11c ..\obj\KGOUT.o
                0x08003078                KGOUT_Init
 .text.test_on  0x08003194      0x2f4 ..\obj\KGOUT.o
 .text.test_off
                0x08003488      0x2f4 ..\obj\KGOUT.o
 .text.AckToPc  0x0800377c       0x98 ..\obj\KGOUT.o
                0x0800377c                AckToPc
 .text.DO_Me    0x08003814      0x1c8 ..\obj\KGOUT.o
                0x08003814                DO_Me
 .text.Test_On_Dula_Wela
                0x080039dc      0x2f4 ..\obj\KGOUT.o
 .text.Test_Off_Dula_Wela
                0x08003cd0      0x2f4 ..\obj\KGOUT.o
 .text.DO_Me_Dula_Wela
                0x08003fc4      0x2b4 ..\obj\KGOUT.o
                0x08003fc4                DO_Me_Dula_Wela
 .text._sbrk    0x08004278       0x40 ..\obj\syscalls.o
                0x08004278                _sbrk
 .text.EXTIX_Init
                0x080042b8       0x70 ..\obj\exti.o
                0x080042b8                EXTIX_Init
 .text.EXTI15_10_IRQHandler
                0x08004328       0x30 ..\obj\exti.o
                0x08004328                EXTI15_10_IRQHandler
 .text.NVIC_PriorityGroupConfig
                0x08004358       0x24 ..\obj\misc.o
                0x08004358                NVIC_PriorityGroupConfig
 .text.NVIC_Init
                0x0800437c       0xc0 ..\obj\misc.o
                0x0800437c                NVIC_Init
 .text.SysTick_CLKSourceConfig
                0x0800443c       0x38 ..\obj\misc.o
                0x0800443c                SysTick_CLKSourceConfig
 .text.uart2_init
                0x08004474       0xe4 ..\obj\usart.o
                0x08004474                uart2_init
 .text.USART2_IRQHandler
                0x08004558      0x140 ..\obj\usart.o
                0x08004558                USART2_IRQHandler
 .text.uart2Putc
                0x08004698       0x4c ..\obj\usart.o
                0x08004698                uart2Putc
 .text.uart2Puts
                0x080046e4       0x38 ..\obj\usart.o
                0x080046e4                uart2Puts
 .text.Uart2Send
                0x0800471c       0x74 ..\obj\usart.o
                0x0800471c                Uart2Send
 .text.uart2_Printf
                0x08004790       0x4c ..\obj\usart.o
                0x08004790                uart2_Printf
 .text.uart2_wait_timerproc
                0x080047dc       0xc4 ..\obj\usart.o
                0x080047dc                uart2_wait_timerproc
 .text.IWDG_WriteAccessCmd
                0x080048a0       0x20 ..\obj\stm32f10x_iwdg.o
                0x080048a0                IWDG_WriteAccessCmd
 .text.IWDG_SetPrescaler
                0x080048c0       0x20 ..\obj\stm32f10x_iwdg.o
                0x080048c0                IWDG_SetPrescaler
 .text.IWDG_SetReload
                0x080048e0       0x20 ..\obj\stm32f10x_iwdg.o
                0x080048e0                IWDG_SetReload
 .text.IWDG_ReloadCounter
                0x08004900       0x18 ..\obj\stm32f10x_iwdg.o
                0x08004900                IWDG_ReloadCounter
 .text.IWDG_Enable
                0x08004918       0x18 ..\obj\stm32f10x_iwdg.o
                0x08004918                IWDG_Enable
 .text          0x08004930      0x370 c:/program files/gnu tools arm embedded/4.8 2014q3/bin/../lib/gcc/arm-none-eabi/4.8.4/armv7-m\libgcc.a(_arm_addsubdf3.o)
                0x08004930                __aeabi_drsub
                0x08004938                __aeabi_dsub
                0x08004938                __subdf3
                0x0800493c                __aeabi_dadd
                0x0800493c                __adddf3
                0x08004bb4                __floatunsidf
                0x08004bb4                __aeabi_ui2d
                0x08004bd4                __floatsidf
                0x08004bd4                __aeabi_i2d
                0x08004bf8                __aeabi_f2d
                0x08004bf8                __extendsfdf2
                0x08004c34                __floatundidf
                0x08004c34                __aeabi_ul2d
                0x08004c44                __floatdidf
                0x08004c44                __aeabi_l2d
 .text          0x08004ca0      0x424 c:/program files/gnu tools arm embedded/4.8 2014q3/bin/../lib/gcc/arm-none-eabi/4.8.4/armv7-m\libgcc.a(_arm_muldivdf3.o)
                0x08004ca0                __aeabi_dmul
                0x08004ca0                __muldf3
                0x08004ef4                __divdf3
                0x08004ef4                __aeabi_ddiv
 .text          0x080050c4       0x40 c:/program files/gnu tools arm embedded/4.8 2014q3/bin/../lib/gcc/arm-none-eabi/4.8.4/armv7-m\libgcc.a(_arm_fixunsdfsi.o)
                0x080050c4                __aeabi_d2uiz
                0x080050c4                __fixunsdfsi
 .text.malloc   0x08005104       0x10 c:/program files/gnu tools arm embedded/4.8 2014q3/bin/../lib/gcc/arm-none-eabi/4.8.4/../../../../arm-none-eabi/lib/armv7-m\libg.a(lib_a-malloc.o)
                0x08005104                malloc
 .text.free     0x08005114       0x10 c:/program files/gnu tools arm embedded/4.8 2014q3/bin/../lib/gcc/arm-none-eabi/4.8.4/../../../../arm-none-eabi/lib/armv7-m\libg.a(lib_a-malloc.o)
                0x08005114                free
 .text._malloc_r
                0x08005124      0x538 c:/program files/gnu tools arm embedded/4.8 2014q3/bin/../lib/gcc/arm-none-eabi/4.8.4/../../../../arm-none-eabi/lib/armv7-m\libg.a(lib_a-mallocr.o)
                0x08005124                _malloc_r
 .text.memset   0x0800565c       0x94 c:/program files/gnu tools arm embedded/4.8 2014q3/bin/../lib/gcc/arm-none-eabi/4.8.4/../../../../arm-none-eabi/lib/armv7-m\libg.a(lib_a-memset.o)
                0x0800565c                memset
 .text.__malloc_lock
                0x080056f0        0x4 c:/program files/gnu tools arm embedded/4.8 2014q3/bin/../lib/gcc/arm-none-eabi/4.8.4/../../../../arm-none-eabi/lib/armv7-m\libg.a(lib_a-mlock.o)
                0x080056f0                __malloc_lock
 .text.__malloc_unlock
                0x080056f4        0x4 c:/program files/gnu tools arm embedded/4.8 2014q3/bin/../lib/gcc/arm-none-eabi/4.8.4/../../../../arm-none-eabi/lib/armv7-m\libg.a(lib_a-mlock.o)
                0x080056f4                __malloc_unlock
 .text._sbrk_r  0x080056f8       0x24 c:/program files/gnu tools arm embedded/4.8 2014q3/bin/../lib/gcc/arm-none-eabi/4.8.4/../../../../arm-none-eabi/lib/armv7-m\libg.a(lib_a-sbrkr.o)
                0x080056f8                _sbrk_r
 .text._malloc_trim_r
                0x0800571c       0x9c c:/program files/gnu tools arm embedded/4.8 2014q3/bin/../lib/gcc/arm-none-eabi/4.8.4/../../../../arm-none-eabi/lib/armv7-m\libg.a(lib_a-freer.o)
                0x0800571c                _malloc_trim_r
 .text._free_r  0x080057b8      0x198 c:/program files/gnu tools arm embedded/4.8 2014q3/bin/../lib/gcc/arm-none-eabi/4.8.4/../../../../arm-none-eabi/lib/armv7-m\libg.a(lib_a-freer.o)
                0x080057b8                _free_r
 *(.init)
 *(.fini)
 *crtbegin.o(.ctors)
 *crtbegin?.o(.ctors)
 *(EXCLUDE_FILE(*crtend.o *crtend?.o) .ctors)
 *(SORT(.ctors.*))
 *(.ctors)
 *crtbegin.o(.dtors)
 *crtbegin?.o(.dtors)
 *(EXCLUDE_FILE(*crtend.o *crtend?.o) .dtors)
 *(SORT(.dtors.*))
 *(.dtors)
 *(.rodata*)
 .rodata        0x08005950       0x10 ..\obj\main.o
 *(.eh_fram e*)

.glue_7         0x08005960        0x0
 .glue_7        0x00000000        0x0 linker stubs

.glue_7t        0x08005960        0x0
 .glue_7t       0x00000000        0x0 linker stubs

.vfp11_veneer   0x08005960        0x0
 .vfp11_veneer  0x00000000        0x0 linker stubs

.v4_bx          0x08005960        0x0
 .v4_bx         0x00000000        0x0 linker stubs

.iplt           0x08005960        0x0
 .iplt          0x00000000        0x0 ..\obj\stm32f10x_rtc.o

.rel.dyn        0x08005960        0x0
 .rel.iplt      0x00000000        0x0 ..\obj\stm32f10x_rtc.o

.ARM.extab
 *(.ARM.extab* .gnu.linkonce.armextab.*)
                0x08005960                __exidx_start = .

.ARM.exidx
 *(.ARM.exidx* .gnu.linkonce.armexidx.*)
                0x08005960                __exidx_end = .
                0x08005960                __etext = .
                0x08005960                _sidata = __etext

.data           0x20000000      0x86c load address 0x08005960
                0x20000000                __data_start__ = .
                0x20000000                _sdata = __data_start__
 *(vtable)
 *(.data*)
 .data          0x20000000       0x14 ..\obj\system_stm32f10x.o
                0x20000000                SystemCoreClock
                0x20000004                AHBPrescTable
 *fill*         0x20000014        0x4 
 .data          0x20000018      0x430 ..\obj\printf.o
                0x20000018                r
                0x20000440                _impure_ptr
 .data          0x20000448       0x14 ..\obj\stm32f10x_rcc.o
 .data.__malloc_av_
                0x2000045c      0x408 c:/program files/gnu tools arm embedded/4.8 2014q3/bin/../lib/gcc/arm-none-eabi/4.8.4/../../../../arm-none-eabi/lib/armv7-m\libg.a(lib_a-mallocr.o)
                0x2000045c                __malloc_av_
 .data.__malloc_trim_threshold
                0x20000864        0x4 c:/program files/gnu tools arm embedded/4.8 2014q3/bin/../lib/gcc/arm-none-eabi/4.8.4/../../../../arm-none-eabi/lib/armv7-m\libg.a(lib_a-mallocr.o)
                0x20000864                __malloc_trim_threshold
 .data.__malloc_sbrk_base
                0x20000868        0x4 c:/program files/gnu tools arm embedded/4.8 2014q3/bin/../lib/gcc/arm-none-eabi/4.8.4/../../../../arm-none-eabi/lib/armv7-m\libg.a(lib_a-mallocr.o)
                0x20000868                __malloc_sbrk_base
                0x2000086c                . = ALIGN (0x4)
                0x2000086c                PROVIDE (__preinit_array_start, .)
 *(.preinit_array)
                0x2000086c                PROVIDE (__preinit_array_end, .)
                0x2000086c                . = ALIGN (0x4)
                0x2000086c                PROVIDE (__init_array_start, .)
 *(SORT(.init_array.*))
 *(.init_array)
                0x2000086c                PROVIDE (__init_array_end, .)
                0x2000086c                . = ALIGN (0x4)
                0x2000086c                PROVIDE (__fini_array_start, .)
 *(SORT(.fini_array.*))
 *(.fini_array)
                0x2000086c                PROVIDE (__fini_array_end, .)
 *(.jcr*)
                0x2000086c                . = ALIGN (0x4)
                0x2000086c                __data_end__ = .
                0x2000086c                _edata = __data_end__

.igot.plt       0x2000086c        0x0 load address 0x080061cc
 .igot.plt      0x00000000        0x0 ..\obj\stm32f10x_rtc.o

.bss            0x2000086c      0x154 load address 0x080061cc
                0x2000086c                . = ALIGN (0x4)
                0x2000086c                __bss_start__ = .
                0x2000086c                _sbss = __bss_start__
 *(.bss*)
 .bss           0x2000086c        0x4 ..\obj\delay.o
 .bss           0x20000870        0x3 ..\obj\detect.o
                0x20000870                flag_t
                0x20000871                flag_p
                0x20000872                flag_n
 *fill*         0x20000873        0x1 
 .bss           0x20000874        0x4 ..\obj\syscalls.o
 .bss           0x20000878        0x1 ..\obj\exti.o
                0x20000878                int0_flag
 .bss           0x20000879        0x3 ..\obj\usart.o
 .bss.__malloc_max_total_mem
                0x2000087c        0x4 c:/program files/gnu tools arm embedded/4.8 2014q3/bin/../lib/gcc/arm-none-eabi/4.8.4/../../../../arm-none-eabi/lib/armv7-m\libg.a(lib_a-mallocr.o)
                0x2000087c                __malloc_max_total_mem
 .bss.__malloc_max_sbrked_mem
                0x20000880        0x4 c:/program files/gnu tools arm embedded/4.8 2014q3/bin/../lib/gcc/arm-none-eabi/4.8.4/../../../../arm-none-eabi/lib/armv7-m\libg.a(lib_a-mallocr.o)
                0x20000880                __malloc_max_sbrked_mem
 .bss.__malloc_top_pad
                0x20000884        0x4 c:/program files/gnu tools arm embedded/4.8 2014q3/bin/../lib/gcc/arm-none-eabi/4.8.4/../../../../arm-none-eabi/lib/armv7-m\libg.a(lib_a-mallocr.o)
                0x20000884                __malloc_top_pad
 .bss.__malloc_current_mallinfo
                0x20000888       0x28 c:/program files/gnu tools arm embedded/4.8 2014q3/bin/../lib/gcc/arm-none-eabi/4.8.4/../../../../arm-none-eabi/lib/armv7-m\libg.a(lib_a-mallocr.o)
                0x20000888                __malloc_current_mallinfo
 *(COMMON)
 COMMON         0x200008b0       0x14 ..\obj\CMD.o
                0x200008b0                XCSFrameData
 COMMON         0x200008c4       0x2f ..\obj\detect.o
                0x200008c4                WinBreakFlag
                0x200008c5                WinTOVERFlag
                0x200008c8                inputstate
                0x200008f2                WinOpenFlag
 *fill*         0x200008f3        0x1 
 COMMON         0x200008f4       0x3e ..\obj\KGOUT.o
                0x200008f4                outputstateM
                0x20000900                outputstate
                0x20000930                Dula_Wela_I2c_Outputstate
 *fill*         0x20000932        0x2 
 COMMON         0x20000934       0x85 ..\obj\usart.o
                0x20000934                Uart2FrameData
 *fill*         0x200009b9        0x3 
 COMMON         0x200009bc        0x4 c:/program files/gnu tools arm embedded/4.8 2014q3/bin/../lib/gcc/arm-none-eabi/4.8.4/../../../../arm-none-eabi/lib/armv7-m\libg.a(lib_a-reent.o)
                0x200009bc                errno
                0x200009c0                . = ALIGN (0x4)
                0x200009c0                __bss_end__ = .
                0x200009c0                _ebss = __bss_end__

.heap           0x200009c0        0x0
                0x200009c0                __end__ = .
                0x200009c0                _end = __end__
                0x200009c0                end = __end__
 *(.heap*)
                0x200009c0                __HeapLimit = .

.co_stack       0x200009c0      0x400 load address 0x08006320
                0x200009c0                . = ALIGN (0x8)
 *(.co_stack .co_stack.*)
 .co_stack      0x200009c0      0x400 ..\obj\startup_stm32f10x_hd.o
                0x200009c0                pulStack
                0x20010000                __StackTop = (ORIGIN (ram) + 0x10000)
                0x2000fc00                __StackLimit = (__StackTop - SIZEOF (.co_stack))
                0x20010000                PROVIDE (__stack, __StackTop)
                0x00000001                ASSERT ((__StackLimit >= __HeapLimit), region ram  overflowed with stack)
LOAD ..\obj\stm32f10x_rtc.o
LOAD ..\obj\delay.o
LOAD ..\obj\stm32f10x_tim.o
LOAD ..\obj\timer.o
LOAD ..\obj\system_stm32f10x.o
LOAD ..\obj\led.o
LOAD ..\obj\startup_stm32f10x_hd.o
LOAD ..\obj\AD974.o
LOAD ..\obj\stm32f10x_fsmc.o
LOAD ..\obj\stm32f10x_pwr.o
LOAD ..\obj\CMD.o
LOAD ..\obj\stm32f10x_gpio.o
LOAD ..\obj\sys.o
LOAD ..\obj\main.o
LOAD ..\obj\wdg.o
LOAD ..\obj\printf.o
LOAD ..\obj\stm32f10x_rcc.o
LOAD ..\obj\stm32f10x_exti.o
LOAD ..\obj\CAT9555.o
LOAD ..\obj\stm32f10x_adc.o
LOAD ..\obj\stm32f10x_usart.o
LOAD ..\obj\detect.o
LOAD ..\obj\KGOUT.o
LOAD ..\obj\syscalls.o
LOAD ..\obj\exti.o
LOAD ..\obj\stm32f10x_flash.o
LOAD ..\obj\stm32f10x_sdio.o
LOAD ..\obj\misc.o
LOAD ..\obj\stm32f10x_spi.o
LOAD ..\obj\stm32f10x_i2c.o
LOAD ..\obj\stm32f10x_bkp.o
LOAD ..\obj\usart.o
LOAD ..\obj\stm32f10x_iwdg.o
START GROUP
LOAD c:/program files/gnu tools arm embedded/4.8 2014q3/bin/../lib/gcc/arm-none-eabi/4.8.4/armv7-m\libgcc.a
LOAD c:/program files/gnu tools arm embedded/4.8 2014q3/bin/../lib/gcc/arm-none-eabi/4.8.4/../../../../arm-none-eabi/lib/armv7-m\libg.a
LOAD c:/program files/gnu tools arm embedded/4.8 2014q3/bin/../lib/gcc/arm-none-eabi/4.8.4/../../../../arm-none-eabi/lib/armv7-m\libc.a
END GROUP
OUTPUT(XFdd.elf elf32-littlearm)

.debug_info     0x00000000     0x8675
 .debug_info    0x00000000      0x211 ..\obj\delay.o
 .debug_info    0x00000211     0x1c58 ..\obj\stm32f10x_tim.o
 .debug_info    0x00001e69      0x5e8 ..\obj\timer.o
 .debug_info    0x00002451      0x479 ..\obj\system_stm32f10x.o
 .debug_info    0x000028ca      0x235 ..\obj\led.o
 .debug_info    0x00002aff       0xe9 ..\obj\startup_stm32f10x_hd.o
 .debug_info    0x00002be8      0x342 ..\obj\AD974.o
 .debug_info    0x00002f2a      0x304 ..\obj\CMD.o
 .debug_info    0x0000322e      0x6e7 ..\obj\stm32f10x_gpio.o
 .debug_info    0x00003915       0xdd ..\obj\sys.o
 .debug_info    0x000039f2      0x158 ..\obj\main.o
 .debug_info    0x00003b4a      0x13c ..\obj\wdg.o
 .debug_info    0x00003c86      0xe38 ..\obj\printf.o
 .debug_info    0x00004abe      0x88d ..\obj\stm32f10x_rcc.o
 .debug_info    0x0000534b      0x341 ..\obj\stm32f10x_exti.o
 .debug_info    0x0000568c      0x3f3 ..\obj\CAT9555.o
 .debug_info    0x00005a7f      0x9e8 ..\obj\stm32f10x_usart.o
 .debug_info    0x00006467      0x484 ..\obj\detect.o
 .debug_info    0x000068eb      0x522 ..\obj\KGOUT.o
 .debug_info    0x00006e0d      0x3ee ..\obj\syscalls.o
 .debug_info    0x000071fb      0x52b ..\obj\exti.o
 .debug_info    0x00007726      0x53d ..\obj\misc.o
 .debug_info    0x00007c63      0x808 ..\obj\usart.o
 .debug_info    0x0000846b      0x20a ..\obj\stm32f10x_iwdg.o

.debug_abbrev   0x00000000     0x1fae
 .debug_abbrev  0x00000000       0xfc ..\obj\delay.o
 .debug_abbrev  0x000000fc      0x1b0 ..\obj\stm32f10x_tim.o
 .debug_abbrev  0x000002ac      0x12e ..\obj\timer.o
 .debug_abbrev  0x000003da      0x14c ..\obj\system_stm32f10x.o
 .debug_abbrev  0x00000526       0xef ..\obj\led.o
 .debug_abbrev  0x00000615       0xa7 ..\obj\startup_stm32f10x_hd.o
 .debug_abbrev  0x000006bc      0x15f ..\obj\AD974.o
 .debug_abbrev  0x0000081b      0x161 ..\obj\CMD.o
 .debug_abbrev  0x0000097c      0x1c8 ..\obj\stm32f10x_gpio.o
 .debug_abbrev  0x00000b44       0x67 ..\obj\sys.o
 .debug_abbrev  0x00000bab       0xbe ..\obj\main.o
 .debug_abbrev  0x00000c69       0xac ..\obj\wdg.o
 .debug_abbrev  0x00000d15      0x27e ..\obj\printf.o
 .debug_abbrev  0x00000f93      0x1ba ..\obj\stm32f10x_rcc.o
 .debug_abbrev  0x0000114d      0x151 ..\obj\stm32f10x_exti.o
 .debug_abbrev  0x0000129e      0x16e ..\obj\CAT9555.o
 .debug_abbrev  0x0000140c      0x162 ..\obj\stm32f10x_usart.o
 .debug_abbrev  0x0000156e      0x1e9 ..\obj\detect.o
 .debug_abbrev  0x00001757      0x214 ..\obj\KGOUT.o
 .debug_abbrev  0x0000196b       0xe2 ..\obj\syscalls.o
 .debug_abbrev  0x00001a4d      0x10f ..\obj\exti.o
 .debug_abbrev  0x00001b5c      0x145 ..\obj\misc.o
 .debug_abbrev  0x00001ca1      0x20c ..\obj\usart.o
 .debug_abbrev  0x00001ead      0x101 ..\obj\stm32f10x_iwdg.o

.debug_aranges  0x00000000      0xb00
 .debug_aranges
                0x00000000       0x30 ..\obj\delay.o
 .debug_aranges
                0x00000030      0x2f0 ..\obj\stm32f10x_tim.o
 .debug_aranges
                0x00000320       0x28 ..\obj\timer.o
 .debug_aranges
                0x00000348       0x38 ..\obj\system_stm32f10x.o
 .debug_aranges
                0x00000380       0x20 ..\obj\led.o
 .debug_aranges
                0x000003a0       0x28 ..\obj\startup_stm32f10x_hd.o
 .debug_aranges
                0x000003c8       0x40 ..\obj\AD974.o
 .debug_aranges
                0x00000408       0x50 ..\obj\CMD.o
 .debug_aranges
                0x00000458       0xa8 ..\obj\stm32f10x_gpio.o
 .debug_aranges
                0x00000500       0x20 ..\obj\sys.o
 .debug_aranges
                0x00000520       0x20 ..\obj\main.o
 .debug_aranges
                0x00000540       0x28 ..\obj\wdg.o
 .debug_aranges
                0x00000568       0xa0 ..\obj\printf.o
 .debug_aranges
                0x00000608      0x118 ..\obj\stm32f10x_rcc.o
 .debug_aranges
                0x00000720       0x58 ..\obj\stm32f10x_exti.o
 .debug_aranges
                0x00000778       0x70 ..\obj\CAT9555.o
 .debug_aranges
                0x000007e8      0x100 ..\obj\stm32f10x_usart.o
 .debug_aranges
                0x000008e8       0x58 ..\obj\detect.o
 .debug_aranges
                0x00000940       0x60 ..\obj\KGOUT.o
 .debug_aranges
                0x000009a0       0x60 ..\obj\syscalls.o
 .debug_aranges
                0x00000a00       0x28 ..\obj\exti.o
 .debug_aranges
                0x00000a28       0x40 ..\obj\misc.o
 .debug_aranges
                0x00000a68       0x50 ..\obj\usart.o
 .debug_aranges
                0x00000ab8       0x48 ..\obj\stm32f10x_iwdg.o

.debug_ranges   0x00000000      0x980
 .debug_ranges  0x00000000       0x20 ..\obj\delay.o
 .debug_ranges  0x00000020      0x2e0 ..\obj\stm32f10x_tim.o
 .debug_ranges  0x00000300       0x18 ..\obj\timer.o
 .debug_ranges  0x00000318       0x28 ..\obj\system_stm32f10x.o
 .debug_ranges  0x00000340       0x10 ..\obj\led.o
 .debug_ranges  0x00000350       0x18 ..\obj\startup_stm32f10x_hd.o
 .debug_ranges  0x00000368       0x30 ..\obj\AD974.o
 .debug_ranges  0x00000398       0x40 ..\obj\CMD.o
 .debug_ranges  0x000003d8       0x98 ..\obj\stm32f10x_gpio.o
 .debug_ranges  0x00000470       0x10 ..\obj\sys.o
 .debug_ranges  0x00000480       0x10 ..\obj\main.o
 .debug_ranges  0x00000490       0x18 ..\obj\wdg.o
 .debug_ranges  0x000004a8       0x90 ..\obj\printf.o
 .debug_ranges  0x00000538      0x108 ..\obj\stm32f10x_rcc.o
 .debug_ranges  0x00000640       0x48 ..\obj\stm32f10x_exti.o
 .debug_ranges  0x00000688       0x60 ..\obj\CAT9555.o
 .debug_ranges  0x000006e8       0xf0 ..\obj\stm32f10x_usart.o
 .debug_ranges  0x000007d8       0x48 ..\obj\detect.o
 .debug_ranges  0x00000820       0x50 ..\obj\KGOUT.o
 .debug_ranges  0x00000870       0x50 ..\obj\syscalls.o
 .debug_ranges  0x000008c0       0x18 ..\obj\exti.o
 .debug_ranges  0x000008d8       0x30 ..\obj\misc.o
 .debug_ranges  0x00000908       0x40 ..\obj\usart.o
 .debug_ranges  0x00000948       0x38 ..\obj\stm32f10x_iwdg.o

.debug_line     0x00000000     0x461f
 .debug_line    0x00000000      0x1da ..\obj\delay.o
 .debug_line    0x000001da      0xa3f ..\obj\stm32f10x_tim.o
 .debug_line    0x00000c19      0x1e4 ..\obj\timer.o
 .debug_line    0x00000dfd      0x1f0 ..\obj\system_stm32f10x.o
 .debug_line    0x00000fed      0x1bd ..\obj\led.o
 .debug_line    0x000011aa       0x98 ..\obj\startup_stm32f10x_hd.o
 .debug_line    0x00001242      0x2bd ..\obj\AD974.o
 .debug_line    0x000014ff      0x2b6 ..\obj\CMD.o
 .debug_line    0x000017b5      0x373 ..\obj\stm32f10x_gpio.o
 .debug_line    0x00001b28      0x146 ..\obj\sys.o
 .debug_line    0x00001c6e      0x18b ..\obj\main.o
 .debug_line    0x00001df9      0x192 ..\obj\wdg.o
 .debug_line    0x00001f8b      0x379 ..\obj\printf.o
 .debug_line    0x00002304      0x481 ..\obj\stm32f10x_rcc.o
 .debug_line    0x00002785      0x269 ..\obj\stm32f10x_exti.o
 .debug_line    0x000029ee      0x2f3 ..\obj\CAT9555.o
 .debug_line    0x00002ce1      0x45e ..\obj\stm32f10x_usart.o
 .debug_line    0x0000313f      0x491 ..\obj\detect.o
 .debug_line    0x000035d0      0x562 ..\obj\KGOUT.o
 .debug_line    0x00003b32      0x165 ..\obj\syscalls.o
 .debug_line    0x00003c97      0x220 ..\obj\exti.o
 .debug_line    0x00003eb7      0x209 ..\obj\misc.o
 .debug_line    0x000040c0      0x379 ..\obj\usart.o
 .debug_line    0x00004439      0x1e6 ..\obj\stm32f10x_iwdg.o

.debug_str      0x00000000     0x30a8
 .debug_str     0x00000000      0x1d5 ..\obj\delay.o
                                0x237 (size before relaxing)
 .debug_str     0x000001d5      0xc0c ..\obj\stm32f10x_tim.o
                                0xddb (size before relaxing)
 .debug_str     0x00000de1      0x493 ..\obj\timer.o
                                0x7e7 (size before relaxing)
 .debug_str     0x00001274      0x158 ..\obj\system_stm32f10x.o
                                0x2ed (size before relaxing)
 .debug_str     0x000013cc      0x167 ..\obj\led.o
                                0x30e (size before relaxing)
 .debug_str     0x00001533       0xa6 ..\obj\startup_stm32f10x_hd.o
                                0x13d (size before relaxing)
 .debug_str     0x000015d9       0xaa ..\obj\AD974.o
                                0x393 (size before relaxing)
 .debug_str     0x00001683      0x103 ..\obj\CMD.o
                                0x299 (size before relaxing)
 .debug_str     0x00001786      0x257 ..\obj\stm32f10x_gpio.o
                                0x517 (size before relaxing)
 .debug_str     0x000019dd       0x3f ..\obj\sys.o
                                0x1c3 (size before relaxing)
 .debug_str     0x00001a1c       0x27 ..\obj\main.o
                                0x1da (size before relaxing)
 .debug_str     0x00001a43       0x47 ..\obj\wdg.o
                                0x1dd (size before relaxing)
 .debug_str     0x00001a8a      0x4ac ..\obj\printf.o
                                0x644 (size before relaxing)
 .debug_str     0x00001f36      0x3de ..\obj\stm32f10x_rcc.o
                                0x618 (size before relaxing)
 .debug_str     0x00002314      0x1c8 ..\obj\stm32f10x_exti.o
                                0x347 (size before relaxing)
 .debug_str     0x000024dc      0x134 ..\obj\CAT9555.o
                                0x41d (size before relaxing)
 .debug_str     0x00002610      0x425 ..\obj\stm32f10x_usart.o
                                0x68e (size before relaxing)
 .debug_str     0x00002a35       0xdb ..\obj\detect.o
                                0x40e (size before relaxing)
 .debug_str     0x00002b10      0x11d ..\obj\KGOUT.o
                                0x45e (size before relaxing)
 .debug_str     0x00002c2d      0x136 ..\obj\syscalls.o
                                0x2b5 (size before relaxing)
 .debug_str     0x00002d63       0x6c ..\obj\exti.o
                                0x873 (size before relaxing)
 .debug_str     0x00002dcf      0x132 ..\obj\misc.o
                                0x3bc (size before relaxing)
 .debug_str     0x00002f01       0xd1 ..\obj\usart.o
                                0x949 (size before relaxing)
 .debug_str     0x00002fd2       0xd6 ..\obj\stm32f10x_iwdg.o
                                0x25a (size before relaxing)

.comment        0x00000000       0x70
 .comment       0x00000000       0x70 ..\obj\delay.o
                                 0x71 (size before relaxing)
 .comment       0x00000000       0x71 ..\obj\stm32f10x_tim.o
 .comment       0x00000000       0x71 ..\obj\timer.o
 .comment       0x00000000       0x71 ..\obj\system_stm32f10x.o
 .comment       0x00000000       0x71 ..\obj\led.o
 .comment       0x00000000       0x71 ..\obj\startup_stm32f10x_hd.o
 .comment       0x00000000       0x71 ..\obj\AD974.o
 .comment       0x00000000       0x71 ..\obj\CMD.o
 .comment       0x00000000       0x71 ..\obj\stm32f10x_gpio.o
 .comment       0x00000000       0x71 ..\obj\sys.o
 .comment       0x00000000       0x71 ..\obj\main.o
 .comment       0x00000000       0x71 ..\obj\wdg.o
 .comment       0x00000000       0x71 ..\obj\printf.o
 .comment       0x00000000       0x71 ..\obj\stm32f10x_rcc.o
 .comment       0x00000000       0x71 ..\obj\stm32f10x_exti.o
 .comment       0x00000000       0x71 ..\obj\CAT9555.o
 .comment       0x00000000       0x71 ..\obj\stm32f10x_usart.o
 .comment       0x00000000       0x71 ..\obj\detect.o
 .comment       0x00000000       0x71 ..\obj\KGOUT.o
 .comment       0x00000000       0x71 ..\obj\syscalls.o
 .comment       0x00000000       0x71 ..\obj\exti.o
 .comment       0x00000000       0x71 ..\obj\misc.o
 .comment       0x00000000       0x71 ..\obj\usart.o
 .comment       0x00000000       0x71 ..\obj\stm32f10x_iwdg.o

.ARM.attributes
                0x00000000       0x33
 .ARM.attributes
                0x00000000       0x33 ..\obj\delay.o
 .ARM.attributes
                0x00000033       0x33 ..\obj\stm32f10x_tim.o
 .ARM.attributes
                0x00000066       0x33 ..\obj\timer.o
 .ARM.attributes
                0x00000099       0x33 ..\obj\system_stm32f10x.o
 .ARM.attributes
                0x000000cc       0x33 ..\obj\led.o
 .ARM.attributes
                0x000000ff       0x33 ..\obj\startup_stm32f10x_hd.o
 .ARM.attributes
                0x00000132       0x33 ..\obj\AD974.o
 .ARM.attributes
                0x00000165       0x33 ..\obj\CMD.o
 .ARM.attributes
                0x00000198       0x33 ..\obj\stm32f10x_gpio.o
 .ARM.attributes
                0x000001cb       0x33 ..\obj\sys.o
 .ARM.attributes
                0x000001fe       0x33 ..\obj\main.o
 .ARM.attributes
                0x00000231       0x33 ..\obj\wdg.o
 .ARM.attributes
                0x00000264       0x33 ..\obj\printf.o
 .ARM.attributes
                0x00000297       0x33 ..\obj\stm32f10x_rcc.o
 .ARM.attributes
                0x000002ca       0x33 ..\obj\stm32f10x_exti.o
 .ARM.attributes
                0x000002fd       0x33 ..\obj\CAT9555.o
 .ARM.attributes
                0x00000330       0x33 ..\obj\stm32f10x_usart.o
 .ARM.attributes
                0x00000363       0x33 ..\obj\detect.o
 .ARM.attributes
                0x00000396       0x33 ..\obj\KGOUT.o
 .ARM.attributes
                0x000003c9       0x33 ..\obj\syscalls.o
 .ARM.attributes
                0x000003fc       0x33 ..\obj\exti.o
 .ARM.attributes
                0x0000042f       0x33 ..\obj\misc.o
 .ARM.attributes
                0x00000462       0x33 ..\obj\usart.o
 .ARM.attributes
                0x00000495       0x33 ..\obj\stm32f10x_iwdg.o
 .ARM.attributes
                0x000004c8       0x1d c:/program files/gnu tools arm embedded/4.8 2014q3/bin/../lib/gcc/arm-none-eabi/4.8.4/armv7-m\libgcc.a(_arm_addsubdf3.o)
 .ARM.attributes
                0x000004e5       0x1d c:/program files/gnu tools arm embedded/4.8 2014q3/bin/../lib/gcc/arm-none-eabi/4.8.4/armv7-m\libgcc.a(_arm_muldivdf3.o)
 .ARM.attributes
                0x00000502       0x1d c:/program files/gnu tools arm embedded/4.8 2014q3/bin/../lib/gcc/arm-none-eabi/4.8.4/armv7-m\libgcc.a(_arm_fixunsdfsi.o)
 .ARM.attributes
                0x0000051f       0x2d c:/program files/gnu tools arm embedded/4.8 2014q3/bin/../lib/gcc/arm-none-eabi/4.8.4/../../../../arm-none-eabi/lib/armv7-m\libg.a(lib_a-malloc.o)
 .ARM.attributes
                0x0000054c       0x2d c:/program files/gnu tools arm embedded/4.8 2014q3/bin/../lib/gcc/arm-none-eabi/4.8.4/../../../../arm-none-eabi/lib/armv7-m\libg.a(lib_a-mallocr.o)
 .ARM.attributes
                0x00000579       0x2d c:/program files/gnu tools arm embedded/4.8 2014q3/bin/../lib/gcc/arm-none-eabi/4.8.4/../../../../arm-none-eabi/lib/armv7-m\libg.a(lib_a-memset.o)
 .ARM.attributes
                0x000005a6       0x2d c:/program files/gnu tools arm embedded/4.8 2014q3/bin/../lib/gcc/arm-none-eabi/4.8.4/../../../../arm-none-eabi/lib/armv7-m\libg.a(lib_a-mlock.o)
 .ARM.attributes
                0x000005d3       0x2d c:/program files/gnu tools arm embedded/4.8 2014q3/bin/../lib/gcc/arm-none-eabi/4.8.4/../../../../arm-none-eabi/lib/armv7-m\libg.a(lib_a-sbrkr.o)
 .ARM.attributes
                0x00000600       0x2d c:/program files/gnu tools arm embedded/4.8 2014q3/bin/../lib/gcc/arm-none-eabi/4.8.4/../../../../arm-none-eabi/lib/armv7-m\libg.a(lib_a-freer.o)
 .ARM.attributes
                0x0000062d       0x2d c:/program files/gnu tools arm embedded/4.8 2014q3/bin/../lib/gcc/arm-none-eabi/4.8.4/../../../../arm-none-eabi/lib/armv7-m\libg.a(lib_a-reent.o)

.debug_frame    0x00000000     0x22a4
 .debug_frame   0x00000000       0x64 ..\obj\delay.o
 .debug_frame   0x00000064      0xa20 ..\obj\stm32f10x_tim.o
 .debug_frame   0x00000a84       0x4c ..\obj\timer.o
 .debug_frame   0x00000ad0       0x80 ..\obj\system_stm32f10x.o
 .debug_frame   0x00000b50       0x30 ..\obj\led.o
 .debug_frame   0x00000b80       0x48 ..\obj\startup_stm32f10x_hd.o
 .debug_frame   0x00000bc8       0xac ..\obj\AD974.o
 .debug_frame   0x00000c74       0xe0 ..\obj\CMD.o
 .debug_frame   0x00000d54      0x210 ..\obj\stm32f10x_gpio.o
 .debug_frame   0x00000f64       0x2c ..\obj\sys.o
 .debug_frame   0x00000f90       0x2c ..\obj\main.o
 .debug_frame   0x00000fbc       0x4c ..\obj\wdg.o
 .debug_frame   0x00001008      0x244 ..\obj\printf.o
 .debug_frame   0x0000124c      0x388 ..\obj\stm32f10x_rcc.o
 .debug_frame   0x000015d4       0xec ..\obj\stm32f10x_exti.o
 .debug_frame   0x000016c0      0x15c ..\obj\CAT9555.o
 .debug_frame   0x0000181c      0x344 ..\obj\stm32f10x_usart.o
 .debug_frame   0x00001b60      0x10c ..\obj\detect.o
 .debug_frame   0x00001c6c      0x11c ..\obj\KGOUT.o
 .debug_frame   0x00001d88      0x108 ..\obj\syscalls.o
 .debug_frame   0x00001e90       0x50 ..\obj\exti.o
 .debug_frame   0x00001ee0       0x9c ..\obj\misc.o
 .debug_frame   0x00001f7c       0xf0 ..\obj\usart.o
 .debug_frame   0x0000206c       0xb0 ..\obj\stm32f10x_iwdg.o
 .debug_frame   0x0000211c       0x30 c:/program files/gnu tools arm embedded/4.8 2014q3/bin/../lib/gcc/arm-none-eabi/4.8.4/../../../../arm-none-eabi/lib/armv7-m\libg.a(lib_a-malloc.o)
 .debug_frame   0x0000214c       0x38 c:/program files/gnu tools arm embedded/4.8 2014q3/bin/../lib/gcc/arm-none-eabi/4.8.4/../../../../arm-none-eabi/lib/armv7-m\libg.a(lib_a-mallocr.o)
 .debug_frame   0x00002184       0x2c c:/program files/gnu tools arm embedded/4.8 2014q3/bin/../lib/gcc/arm-none-eabi/4.8.4/../../../../arm-none-eabi/lib/armv7-m\libg.a(lib_a-memset.o)
 .debug_frame   0x000021b0       0x30 c:/program files/gnu tools arm embedded/4.8 2014q3/bin/../lib/gcc/arm-none-eabi/4.8.4/../../../../arm-none-eabi/lib/armv7-m\libg.a(lib_a-mlock.o)
 .debug_frame   0x000021e0       0x2c c:/program files/gnu tools arm embedded/4.8 2014q3/bin/../lib/gcc/arm-none-eabi/4.8.4/../../../../arm-none-eabi/lib/armv7-m\libg.a(lib_a-sbrkr.o)
 .debug_frame   0x0000220c       0x50 c:/program files/gnu tools arm embedded/4.8 2014q3/bin/../lib/gcc/arm-none-eabi/4.8.4/../../../../arm-none-eabi/lib/armv7-m\libg.a(lib_a-freer.o)
 .debug_frame   0x0000225c       0x48 c:/program files/gnu tools arm embedded/4.8 2014q3/bin/../lib/gcc/arm-none-eabi/4.8.4/../../../../arm-none-eabi/lib/armv7-m\libg.a(lib_a-reent.o)
